libixpdimm-cim.so.1:Intel_AllocatedFromStoragePool_Provider_Create_AssociationMI
libixpdimm-cim.so.1:Intel_AllocatedFromStoragePool_Provider_Create_InstanceMI
libixpdimm-cim.so.1:Intel_AssociatedMemory_Provider_Create_AssociationMI
libixpdimm-cim.so.1:Intel_AssociatedMemory_Provider_Create_InstanceMI
libixpdimm-cim.so.1:Intel_AssociatedSensor_Provider_Create_AssociationMI
libixpdimm-cim.so.1:Intel_AssociatedSensor_Provider_Create_InstanceMI
libixpdimm-cim.so.1:Intel_AvailableDiagnosticService_Provider_Create_AssociationMI
libixpdimm-cim.so.1:Intel_AvailableDiagnosticService_Provider_Create_InstanceMI
libixpdimm-cim.so.1:Intel_AvailableFW_Provider_Create_InstanceMI
libixpdimm-cim.so.1:Intel_BaseServer_Provider_Create_InstanceMI
libixpdimm-cim.so.1:Intel_BasedOn_Provider_Create_AssociationMI
libixpdimm-cim.so.1:Intel_BasedOn_Provider_Create_InstanceMI
libixpdimm-cim.so.1:Intel_ComputerSystemPackage_Provider_Create_AssociationMI
libixpdimm-cim.so.1:Intel_ComputerSystemPackage_Provider_Create_InstanceMI
libixpdimm-cim.so.1:Intel_ConcreteComponent_Provider_Create_AssociationMI
libixpdimm-cim.so.1:Intel_ConcreteComponent_Provider_Create_InstanceMI
libixpdimm-cim.so.1:Intel_ConcreteDependency_Provider_Create_AssociationMI
libixpdimm-cim.so.1:Intel_ConcreteDependency_Provider_Create_InstanceMI
libixpdimm-cim.so.1:Intel_ControlledBy_Provider_Create_AssociationMI
libixpdimm-cim.so.1:Intel_ControlledBy_Provider_Create_InstanceMI
libixpdimm-cim.so.1:Intel_DiagnosticCompletionRecord_Provider_Create_InstanceMI
libixpdimm-cim.so.1:Intel_DiagnosticIdentity_Provider_Create_InstanceMI
libixpdimm-cim.so.1:Intel_DiagnosticLog_Provider_Create_InstanceMI
libixpdimm-cim.so.1:Intel_DiagnosticLog_Provider_Create_MethodMI
libixpdimm-cim.so.1:Intel_ElementAllocatedFromPool_Provider_Create_AssociationMI
libixpdimm-cim.so.1:Intel_ElementAllocatedFromPool_Provider_Create_InstanceMI
libixpdimm-cim.so.1:Intel_ElementCapabilities_Provider_Create_AssociationMI
libixpdimm-cim.so.1:Intel_ElementCapabilities_Provider_Create_InstanceMI
libixpdimm-cim.so.1:Intel_ElementConformsToProfile_Provider_Create_AssociationMI
libixpdimm-cim.so.1:Intel_ElementConformsToProfile_Provider_Create_InstanceMI
libixpdimm-cim.so.1:Intel_ElementSettingData_Provider_Create_AssociationMI
libixpdimm-cim.so.1:Intel_ElementSettingData_Provider_Create_InstanceMI
libixpdimm-cim.so.1:Intel_ElementSoftwareIdentity_Provider_Create_AssociationMI
libixpdimm-cim.so.1:Intel_ElementSoftwareIdentity_Provider_Create_InstanceMI
libixpdimm-cim.so.1:Intel_ElementView_Provider_Create_AssociationMI
libixpdimm-cim.so.1:Intel_ElementView_Provider_Create_InstanceMI
libixpdimm-cim.so.1:Intel_ErasureCapabilities_Provider_Create_InstanceMI
libixpdimm-cim.so.1:Intel_ErasureService_Provider_Create_InstanceMI
libixpdimm-cim.so.1:Intel_ErasureService_Provider_Create_MethodMI
libixpdimm-cim.so.1:Intel_FWEventLog_Provider_Create_InstanceMI
libixpdimm-cim.so.1:Intel_GenericDriverIdentity_Provider_Create_InstanceMI
libixpdimm-cim.so.1:Intel_HostSoftware_Provider_Create_InstanceMI
libixpdimm-cim.so.1:Intel_HostedCollection_Provider_Create_AssociationMI
libixpdimm-cim.so.1:Intel_HostedCollection_Provider_Create_InstanceMI
libixpdimm-cim.so.1:Intel_HostedResourcePool_Provider_Create_AssociationMI
libixpdimm-cim.so.1:Intel_HostedResourcePool_Provider_Create_InstanceMI
libixpdimm-cim.so.1:Intel_HostedService_Provider_Create_AssociationMI
libixpdimm-cim.so.1:Intel_HostedService_Provider_Create_InstanceMI
libixpdimm-cim.so.1:Intel_HostedStoragePool_Provider_Create_AssociationMI
libixpdimm-cim.so.1:Intel_HostedStoragePool_Provider_Create_InstanceMI
libixpdimm-cim.so.1:Intel_InstCreation_Provider_Create_IndicationMI
libixpdimm-cim.so.1:Intel_InstDeletion_Provider_Create_IndicationMI
libixpdimm-cim.so.1:Intel_InstModification_Provider_Create_IndicationMI
libixpdimm-cim.so.1:Intel_InstalledSoftwareIdentity_Provider_Create_AssociationMI
libixpdimm-cim.so.1:Intel_InstalledSoftwareIdentity_Provider_Create_InstanceMI
libixpdimm-cim.so.1:Intel_LogManagesRecord_Provider_Create_AssociationMI
libixpdimm-cim.so.1:Intel_LogManagesRecord_Provider_Create_InstanceMI
libixpdimm-cim.so.1:Intel_ManagementSoftwareIdentity_Provider_Create_InstanceMI
libixpdimm-cim.so.1:Intel_MemberOfCollection_Provider_Create_AssociationMI
libixpdimm-cim.so.1:Intel_MemberOfCollection_Provider_Create_InstanceMI
libixpdimm-cim.so.1:Intel_MemoryAllocationSettings_Provider_Create_InstanceMI
libixpdimm-cim.so.1:Intel_MemoryCapabilities_Provider_Create_InstanceMI
libixpdimm-cim.so.1:Intel_MemoryConfigurationCapabilities_Provider_Create_InstanceMI
libixpdimm-cim.so.1:Intel_MemoryConfigurationService_Provider_Create_InstanceMI
libixpdimm-cim.so.1:Intel_MemoryConfigurationService_Provider_Create_MethodMI
libixpdimm-cim.so.1:Intel_MemoryController_Provider_Create_InstanceMI
libixpdimm-cim.so.1:Intel_MemoryResources_Provider_Create_InstanceMI
libixpdimm-cim.so.1:Intel_MetricDefForME_Provider_Create_AssociationMI
libixpdimm-cim.so.1:Intel_MetricDefForME_Provider_Create_InstanceMI
libixpdimm-cim.so.1:Intel_MetricForME_Provider_Create_AssociationMI
libixpdimm-cim.so.1:Intel_MetricForME_Provider_Create_InstanceMI
libixpdimm-cim.so.1:Intel_MetricInstance_Provider_Create_AssociationMI
libixpdimm-cim.so.1:Intel_MetricInstance_Provider_Create_InstanceMI
libixpdimm-cim.so.1:Intel_NVDIMMCollection_Provider_Create_InstanceMI
libixpdimm-cim.so.1:Intel_NVDIMMDiagnostic_Provider_Create_InstanceMI
libixpdimm-cim.so.1:Intel_NVDIMMDiagnostic_Provider_Create_MethodMI
libixpdimm-cim.so.1:Intel_NVDIMMDriverIdentity_Provider_Create_InstanceMI
libixpdimm-cim.so.1:Intel_NVDIMMEventLog_Provider_Create_InstanceMI
libixpdimm-cim.so.1:Intel_NVDIMMEventLog_Provider_Create_MethodMI
libixpdimm-cim.so.1:Intel_NVDIMMEvent_Provider_Create_IndicationMI
libixpdimm-cim.so.1:Intel_NVDIMMFWVersion_Provider_Create_InstanceMI
libixpdimm-cim.so.1:Intel_NVDIMMLogEntry_Provider_Create_InstanceMI
libixpdimm-cim.so.1:Intel_NVDIMMSensor_Provider_Create_InstanceMI
libixpdimm-cim.so.1:Intel_NVDIMMSoftwareInstallationService_Provider_Create_InstanceMI
libixpdimm-cim.so.1:Intel_NVDIMMSoftwareInstallationService_Provider_Create_MethodMI
libixpdimm-cim.so.1:Intel_NVDIMM_Provider_Create_InstanceMI
libixpdimm-cim.so.1:Intel_NVDIMM_Provider_Create_MethodMI
libixpdimm-cim.so.1:Intel_NamespaceSettings_Provider_Create_InstanceMI
libixpdimm-cim.so.1:Intel_OpaqueSupportData_Provider_Create_InstanceMI
libixpdimm-cim.so.1:Intel_PerformanceMetricDefinition_Provider_Create_InstanceMI
libixpdimm-cim.so.1:Intel_PerformanceMetricServiceCapabilities_Provider_Create_AssociationMI
libixpdimm-cim.so.1:Intel_PerformanceMetricServiceCapabilities_Provider_Create_InstanceMI
libixpdimm-cim.so.1:Intel_PerformanceMetricService_Provider_Create_AssociationMI
libixpdimm-cim.so.1:Intel_PerformanceMetricService_Provider_Create_InstanceMI
libixpdimm-cim.so.1:Intel_PerformanceMetric_Provider_Create_InstanceMI
libixpdimm-cim.so.1:Intel_PersistentConfigurationCapabilities_Provider_Create_InstanceMI
libixpdimm-cim.so.1:Intel_PersistentMemoryCapabilities_Provider_Create_InstanceMI
libixpdimm-cim.so.1:Intel_PersistentMemoryCapabilities_Provider_Create_MethodMI
libixpdimm-cim.so.1:Intel_PersistentMemoryNamespace_Provider_Create_InstanceMI
libixpdimm-cim.so.1:Intel_PersistentMemoryNamespace_Provider_Create_MethodMI
libixpdimm-cim.so.1:Intel_PersistentMemoryPool_Provider_Create_InstanceMI
libixpdimm-cim.so.1:Intel_PersistentMemoryPool_Provider_Create_MethodMI
libixpdimm-cim.so.1:Intel_PersistentMemoryService_Provider_Create_InstanceMI
libixpdimm-cim.so.1:Intel_PersistentMemoryService_Provider_Create_MethodMI
libixpdimm-cim.so.1:Intel_PersistentMemory_Provider_Create_InstanceMI
libixpdimm-cim.so.1:Intel_RawMemory_Provider_Create_InstanceMI
libixpdimm-cim.so.1:Intel_Realizes_Provider_Create_AssociationMI
libixpdimm-cim.so.1:Intel_Realizes_Provider_Create_InstanceMI
libixpdimm-cim.so.1:Intel_RegisteredProfile_Provider_Create_InstanceMI
libixpdimm-cim.so.1:Intel_ServerChassis_Provider_Create_InstanceMI
libixpdimm-cim.so.1:Intel_ServiceAffectsElement_Provider_Create_AssociationMI
libixpdimm-cim.so.1:Intel_ServiceAffectsElement_Provider_Create_InstanceMI
libixpdimm-cim.so.1:Intel_StaticFilter_Provider_Create_InstanceMI
libixpdimm-cim.so.1:Intel_SupportDataService_Provider_Create_InstanceMI
libixpdimm-cim.so.1:Intel_SupportDataService_Provider_Create_MethodMI
libixpdimm-cim.so.1:Intel_SystemDevice_Provider_Create_AssociationMI
libixpdimm-cim.so.1:Intel_SystemDevice_Provider_Create_InstanceMI
libixpdimm-cim.so.1:Intel_SystemProcessor_Provider_Create_InstanceMI
libixpdimm-cim.so.1:Intel_UseOfLog_Provider_Create_AssociationMI
libixpdimm-cim.so.1:Intel_UseOfLog_Provider_Create_InstanceMI
libixpdimm-cim.so.1:Intel_VolatileMemory_Provider_Create_InstanceMI
libixpdimm-cim.so.1:_Z10initLoggerv
libixpdimm-cim.so.1:_Z10lib_unloadv
libixpdimm-cim.so.1:_Z10timeToQuitm
libixpdimm-cim.so.1:_Z12nvm_open_libv
libixpdimm-cim.so.1:_Z13destroyLoggerv
libixpdimm-cim.so.1:_Z13nvm_close_libv
libixpdimm-cim.so.1:_Z13signalHandleri
libixpdimm-cim.so.1:_Z19initProviderFactoryv
libixpdimm-cim.so.1:_Z20InstanceProviderInitv
libixpdimm-cim.so.1:_Z21deleteProviderFactoryv
libixpdimm-cim.so.1:_Z6workerPv
libixpdimm-cim.so.1:_Z8lib_loadv
libixpdimm-cim.so.1:_ZN11cmpiMonitor4InitEv
libixpdimm-cim.so.1:_ZN11cmpiMonitor7CleanupEv
libixpdimm-cim.so.1:_ZN4wbem10indication18NVDIMMEventFactory16createIndicationEP5event
libixpdimm-cim.so.1:_ZN4wbem10indication18NVDIMMEventFactory20getPerceivedSeverityE14event_severity
libixpdimm-cim.so.1:_ZN4wbem10indication19StaticFilterFactory11getInstanceERNS_9framework10ObjectPathERSt6vectorINSt7__cxx1112basic_stringIcSt11char_traitsIcESaIcEEESaISB_EE
libixpdimm-cim.so.1:_ZN4wbem10indication19StaticFilterFactory16getInstanceNamesEv
libixpdimm-cim.so.1:_ZN4wbem10indication19StaticFilterFactory21populateAttributeListERSt6vectorINSt7__cxx1112basic_stringIcSt11char_traitsIcESaIcEEESaIS8_EE
libixpdimm-cim.so.1:_ZN4wbem10indication19StaticFilterFactoryC1Ev
libixpdimm-cim.so.1:_ZN4wbem10indication19StaticFilterFactoryC2Ev
libixpdimm-cim.so.1:_ZN4wbem10indication20NvmIndicationFactory12getFactoriesERSt6vectorIPS1_SaIS3_EE
libixpdimm-cim.so.1:_ZN4wbem10indication20NvmIndicationFactory17createIndicationsEP5eventRSt6vectorIPNS_9framework8InstanceESaIS7_EE
libixpdimm-cim.so.1:_ZN4wbem10indication21InstIndicationFactory13isDeviceEventEP5event
libixpdimm-cim.so.1:_ZN4wbem10indication21InstIndicationFactory13isSensorEventEP5event
libixpdimm-cim.so.1:_ZN4wbem10indication21InstIndicationFactory15isDeviceMissingEP5event
libixpdimm-cim.so.1:_ZN4wbem10indication21InstIndicationFactory16createIndicationEP5event
libixpdimm-cim.so.1:_ZN4wbem10indication21InstIndicationFactory16isDeviceCreationEP5event
libixpdimm-cim.so.1:_ZN4wbem10indication21InstIndicationFactory16isNamespaceEventEP5event
libixpdimm-cim.so.1:_ZN4wbem10indication21InstIndicationFactory19isNamespaceCreationEP5event
libixpdimm-cim.so.1:_ZN4wbem10indication21InstIndicationFactory19isNamespaceDeletionEP5event
libixpdimm-cim.so.1:_ZN4wbem10indication21InstIndicationFactory21canGetEventSensorTypeEPK5eventP11sensor_type
libixpdimm-cim.so.1:_ZN4wbem10indication21InstIndicationFactory22createDeviceIndicationEP5event
libixpdimm-cim.so.1:_ZN4wbem10indication21InstIndicationFactory22createSensorIndicationEP5event
libixpdimm-cim.so.1:_ZN4wbem10indication21InstIndicationFactory24createIndicationInstanceERKNSt7__cxx1112basic_stringIcSt11char_traitsIcESaIcEEEyPNS_9framework10ObjectPathEPNSA_8InstanceESE_PSt6vectorIS7_SaIS7_EE
libixpdimm-cim.so.1:_ZN4wbem10indication21InstIndicationFactory25createNamespaceIndicationEP5event
libixpdimm-cim.so.1:_ZN4wbem10indication21InstIndicationFactory28changeCurrentStateToPreviousEPNS_9framework8InstanceE
libixpdimm-cim.so.1:_ZN4wbem10mem_config13InterleaveSet11getSetIndexEv
libixpdimm-cim.so.1:_ZN4wbem10mem_config13InterleaveSet14getReplicationEv
libixpdimm-cim.so.1:_ZN4wbem10mem_config13InterleaveSet15getChannelCountEv
libixpdimm-cim.so.1:_ZN4wbem10mem_config13InterleaveSet18getSocketIdForGoalEPK11config_goal
libixpdimm-cim.so.1:_ZN4wbem10mem_config13InterleaveSet22getInterleaveSizeValueERK15interleave_size
libixpdimm-cim.so.1:_ZN4wbem10mem_config13InterleaveSet23getInterleaveSizeStringB5cxx11ERK15interleave_size
libixpdimm-cim.so.1:_ZN4wbem10mem_config13InterleaveSet24getChannelInterleaveSizeEv
libixpdimm-cim.so.1:_ZN4wbem10mem_config13InterleaveSet25getInterleaveFormatStringB5cxx11EPK17interleave_format
libixpdimm-cim.so.1:_ZN4wbem10mem_config13InterleaveSet27getControllerInterleaveSizeEv
libixpdimm-cim.so.1:_ZN4wbem10mem_config13InterleaveSet29getExponentFromInterleaveSizeEt
libixpdimm-cim.so.1:_ZN4wbem10mem_config13InterleaveSet29getInterleaveSizeFromExponentEt
libixpdimm-cim.so.1:_ZN4wbem10mem_config13InterleaveSet30getInterleaveFormatInputStringB5cxx11EPK17interleave_formatb
libixpdimm-cim.so.1:_ZN4wbem10mem_config13InterleaveSet32getInterleaveFormatStringFromIntB5cxx11ERKj
libixpdimm-cim.so.1:_ZN4wbem10mem_config13InterleaveSet7getSizeEv
libixpdimm-cim.so.1:_ZN4wbem10mem_config13InterleaveSet7setSizeEy
libixpdimm-cim.so.1:_ZN4wbem10mem_config13InterleaveSetC1EPK11config_goalt
libixpdimm-cim.so.1:_ZN4wbem10mem_config13InterleaveSetC1EPK14interleave_set
libixpdimm-cim.so.1:_ZN4wbem10mem_config13InterleaveSetC1Ev
libixpdimm-cim.so.1:_ZN4wbem10mem_config13InterleaveSetC2EPK11config_goalt
libixpdimm-cim.so.1:_ZN4wbem10mem_config13InterleaveSetC2EPK14interleave_set
libixpdimm-cim.so.1:_ZN4wbem10mem_config13InterleaveSetC2Ev
libixpdimm-cim.so.1:_ZN4wbem10mem_config15PoolViewFactory10lazyInitNsEv
libixpdimm-cim.so.1:_ZN4wbem10mem_config15PoolViewFactory11getInstanceERNS_9framework10ObjectPathERSt6vectorINSt7__cxx1112basic_stringIcSt11char_traitsIcESaIcEEESaISB_EE
libixpdimm-cim.so.1:_ZN4wbem10mem_config15PoolViewFactory11getPoolListEb
libixpdimm-cim.so.1:_ZN4wbem10mem_config15PoolViewFactory15countNamespacesEPK4pool14namespace_type
libixpdimm-cim.so.1:_ZN4wbem10mem_config15PoolViewFactory15getEraseCapableB5cxx11EP4pool
libixpdimm-cim.so.1:_ZN4wbem10mem_config15PoolViewFactory15poolHealthToStrB5cxx11ERK11pool_health
libixpdimm-cim.so.1:_ZN4wbem10mem_config15PoolViewFactory16getInstanceNamesEv
libixpdimm-cim.so.1:_ZN4wbem10mem_config15PoolViewFactory20getEncryptionCapableEP4pool
libixpdimm-cim.so.1:_ZN4wbem10mem_config15PoolViewFactory20getEncryptionEnabledEPK4pool
libixpdimm-cim.so.1:_ZN4wbem10mem_config15PoolViewFactory21PoolHasAppDirectByOneEPK4pool
libixpdimm-cim.so.1:_ZN4wbem10mem_config15PoolViewFactory21populateAttributeListERSt6vectorINSt7__cxx1112basic_stringIcSt11char_traitsIcESaIcEEESaIS8_EE
libixpdimm-cim.so.1:_ZN4wbem10mem_config15PoolViewFactory23getActionRequiredEventsB5cxx11EP4pool
libixpdimm-cim.so.1:_ZN4wbem10mem_config15PoolViewFactory23getPersistentMemoryTypeB5cxx11EPK4pool
libixpdimm-cim.so.1:_ZN4wbem10mem_config15PoolViewFactory23isActionRequiredForPoolEP4pool
libixpdimm-cim.so.1:_ZN4wbem10mem_config15PoolViewFactory25getInterleaveSetFormatStrB5cxx11ERK17interleave_format
libixpdimm-cim.so.1:_ZN4wbem10mem_config15PoolViewFactory27PoolHasAppDirectInterleavedEPK4pool
libixpdimm-cim.so.1:_ZN4wbem10mem_config15PoolViewFactory31getAvailablePersistentSizeRangeEPch
libixpdimm-cim.so.1:_ZN4wbem10mem_config15PoolViewFactory34getPoolActionRequiredFilterForDimmEPc
libixpdimm-cim.so.1:_ZN4wbem10mem_config15PoolViewFactory7getPoolERKNSt7__cxx1112basic_stringIcSt11char_traitsIcESaIcEEE
libixpdimm-cim.so.1:_ZN4wbem10mem_config15PoolViewFactory9getStringB5cxx11Ey
libixpdimm-cim.so.1:_ZN4wbem10mem_config15PoolViewFactoryC1ERN4core10NvmLibraryE
libixpdimm-cim.so.1:_ZN4wbem10mem_config15PoolViewFactoryC2ERN4core10NvmLibraryE
libixpdimm-cim.so.1:_ZN4wbem10mem_config15PoolViewFactoryD0Ev
libixpdimm-cim.so.1:_ZN4wbem10mem_config15PoolViewFactoryD1Ev
libixpdimm-cim.so.1:_ZN4wbem10mem_config15PoolViewFactoryD2Ev
libixpdimm-cim.so.1:_ZN4wbem10mem_config22MemoryResourcesFactory10toInstanceERN4core6system21SystemMemoryResourcesERNS_9framework8InstanceESt6vectorINSt7__cxx1112basic_stringIcSt11char_traitsIcESaIcEEESaISF_EE
libixpdimm-cim.so.1:_ZN4wbem10mem_config22MemoryResourcesFactory11getInstanceERNS_9framework10ObjectPathERSt6vectorINSt7__cxx1112basic_stringIcSt11char_traitsIcESaIcEEESaISB_EE
libixpdimm-cim.so.1:_ZN4wbem10mem_config22MemoryResourcesFactory16getInstanceNamesEv
libixpdimm-cim.so.1:_ZN4wbem10mem_config22MemoryResourcesFactory21populateAttributeListERSt6vectorINSt7__cxx1112basic_stringIcSt11char_traitsIcESaIcEEESaIS8_EE
libixpdimm-cim.so.1:_ZN4wbem10mem_config22MemoryResourcesFactory28getCapacityAllocatedFromPoolEv
libixpdimm-cim.so.1:_ZN4wbem10mem_config22MemoryResourcesFactoryC1Ev
libixpdimm-cim.so.1:_ZN4wbem10mem_config22MemoryResourcesFactoryC2Ev
libixpdimm-cim.so.1:_ZN4wbem10mem_config22MemoryResourcesFactoryD0Ev
libixpdimm-cim.so.1:_ZN4wbem10mem_config22MemoryResourcesFactoryD1Ev
libixpdimm-cim.so.1:_ZN4wbem10mem_config22MemoryResourcesFactoryD2Ev
libixpdimm-cim.so.1:_ZN4wbem10mem_config25MemoryCapabilitiesFactory11getInstanceERNS_9framework10ObjectPathERSt6vectorINSt7__cxx1112basic_stringIcSt11char_traitsIcESaIcEEESaISB_EE
libixpdimm-cim.so.1:_ZN4wbem10mem_config25MemoryCapabilitiesFactory14getMemoryModesERK16nvm_capabilities
libixpdimm-cim.so.1:_ZN4wbem10mem_config25MemoryCapabilitiesFactory16getInstanceNamesEv
libixpdimm-cim.so.1:_ZN4wbem10mem_config25MemoryCapabilitiesFactory21getReliabilitySupportERK16nvm_capabilities
libixpdimm-cim.so.1:_ZN4wbem10mem_config25MemoryCapabilitiesFactory21getReplicationSupportERK16nvm_capabilities
libixpdimm-cim.so.1:_ZN4wbem10mem_config25MemoryCapabilitiesFactory21populateAttributeListERSt6vectorINSt7__cxx1112basic_stringIcSt11char_traitsIcESaIcEEESaIS8_EE
libixpdimm-cim.so.1:_ZN4wbem10mem_config25MemoryCapabilitiesFactory21translateVolatileModeERK16nvm_capabilities
libixpdimm-cim.so.1:_ZN4wbem10mem_config25MemoryCapabilitiesFactory22translateAppDirectModeERK16nvm_capabilities
libixpdimm-cim.so.1:_ZN4wbem10mem_config25MemoryCapabilitiesFactory29getRecommendedInterleaveSizesER15interleave_sizeS3_
libixpdimm-cim.so.1:_ZN4wbem10mem_config25MemoryCapabilitiesFactoryC1Ev
libixpdimm-cim.so.1:_ZN4wbem10mem_config25MemoryCapabilitiesFactoryC2Ev
libixpdimm-cim.so.1:_ZN4wbem10mem_config25MemoryCapabilitiesFactoryD0Ev
libixpdimm-cim.so.1:_ZN4wbem10mem_config25MemoryCapabilitiesFactoryD1Ev
libixpdimm-cim.so.1:_ZN4wbem10mem_config25MemoryCapabilitiesFactoryD2Ev
libixpdimm-cim.so.1:_ZN4wbem10mem_config26MemoryConfigurationFactory11getInstanceERNS_9framework10ObjectPathERSt6vectorINSt7__cxx1112basic_stringIcSt11char_traitsIcESaIcEEESaISB_EE
libixpdimm-cim.so.1:_ZN4wbem10mem_config26MemoryConfigurationFactory12isGoalConfigENSt7__cxx1112basic_stringIcSt11char_traitsIcESaIcEEE
libixpdimm-cim.so.1:_ZN4wbem10mem_config26MemoryConfigurationFactory13dimmIsInAPoolEPcSt6vectorI4poolSaIS4_EE
libixpdimm-cim.so.1:_ZN4wbem10mem_config26MemoryConfigurationFactory13dimmIsInIlsetEPKcRK14interleave_set
libixpdimm-cim.so.1:_ZN4wbem10mem_config26MemoryConfigurationFactory15isCurrentConfigENSt7__cxx1112basic_stringIcSt11char_traitsIcESaIcEEE
libixpdimm-cim.so.1:_ZN4wbem10mem_config26MemoryConfigurationFactory16getGoalInstancesERSt6vectorINSt7__cxx1112basic_stringIcSt11char_traitsIcESaIcEEESaIS8_EEb
libixpdimm-cim.so.1:_ZN4wbem10mem_config26MemoryConfigurationFactory16getInstanceNamesEv
libixpdimm-cim.so.1:_ZN4wbem10mem_config26MemoryConfigurationFactory17isValidInstanceIdENSt7__cxx1112basic_stringIcSt11char_traitsIcESaIcEEE
libixpdimm-cim.so.1:_ZN4wbem10mem_config26MemoryConfigurationFactory19getCurrentIlsetInfoEPKcRKSt6vectorI4poolSaIS5_EERS4_INS0_17InterleaveSetInfoESaISA_EE
libixpdimm-cim.so.1:_ZN4wbem10mem_config26MemoryConfigurationFactory20getGoalInstanceNamesEb
libixpdimm-cim.so.1:_ZN4wbem10mem_config26MemoryConfigurationFactory20populateGoalInstanceERKSt6vectorINSt7__cxx1112basic_stringIcSt11char_traitsIcESaIcEEESaIS8_EERKS8_PNS_9framework8InstanceEPK16device_discovery
libixpdimm-cim.so.1:_ZN4wbem10mem_config26MemoryConfigurationFactory21populateAttributeListERSt6vectorINSt7__cxx1112basic_stringIcSt11char_traitsIcESaIcEEESaIS8_EE
libixpdimm-cim.so.1:_ZN4wbem10mem_config26MemoryConfigurationFactory22getInstancesFromLayoutERKN4core16memory_allocator22MemoryAllocationLayoutERSt6vectorINSt7__cxx1112basic_stringIcSt11char_traitsIcESaIcEEESaISD_EE
libixpdimm-cim.so.1:_ZN4wbem10mem_config26MemoryConfigurationFactory24configGoalStatusToStringB5cxx11E18config_goal_status
libixpdimm-cim.so.1:_ZN4wbem10mem_config26MemoryConfigurationFactory24configGoalToGoalInstanceERKSt6vectorINSt7__cxx1112basic_stringIcSt11char_traitsIcESaIcEEESaIS8_EEPK16device_discoveryRK11config_goalPNS_9framework8InstanceE
libixpdimm-cim.so.1:_ZN4wbem10mem_config26MemoryConfigurationFactory29populateCurrentConfigInstanceERKSt6vectorINSt7__cxx1112basic_stringIcSt11char_traitsIcESaIcEEESaIS8_EERKS8_PNS_9framework8InstanceEPK16device_discovery
libixpdimm-cim.so.1:_ZN4wbem10mem_config26MemoryConfigurationFactory34getDimmIndexInPoolOrReturnNotFoundEPKcPK4pool
libixpdimm-cim.so.1:_ZN4wbem10mem_config26MemoryConfigurationFactory37populateInstanceDimmInfoFromDiscoveryERSt6vectorINSt7__cxx1112basic_stringIcSt11char_traitsIcESaIcEEESaIS8_EEPNS_9framework8InstanceERK16device_discovery
libixpdimm-cim.so.1:_ZN4wbem10mem_config26MemoryConfigurationFactory38getDimmMemoryCapacityFromCurrentConfigEPKcRKSt6vectorI4poolSaIS5_EE
libixpdimm-cim.so.1:_ZN4wbem10mem_config26MemoryConfigurationFactoryC1Ev
libixpdimm-cim.so.1:_ZN4wbem10mem_config26MemoryConfigurationFactoryC2Ev
libixpdimm-cim.so.1:_ZN4wbem10mem_config26MemoryConfigurationFactoryD0Ev
libixpdimm-cim.so.1:_ZN4wbem10mem_config26MemoryConfigurationFactoryD1Ev
libixpdimm-cim.so.1:_ZN4wbem10mem_config26MemoryConfigurationFactoryD2Ev
libixpdimm-cim.so.1:_ZN4wbem10mem_config31MemoryAllocationSettingsFactory11getInstanceERNS_9framework10ObjectPathERSt6vectorINSt7__cxx1112basic_stringIcSt11char_traitsIcESaIcEEESaISB_EE
libixpdimm-cim.so.1:_ZN4wbem10mem_config31MemoryAllocationSettingsFactory11getSocketIdENSt7__cxx1112basic_stringIcSt11char_traitsIcESaIcEEE
libixpdimm-cim.so.1:_ZN4wbem10mem_config31MemoryAllocationSettingsFactory12getChannelIdENSt7__cxx1112basic_stringIcSt11char_traitsIcESaIcEEE
libixpdimm-cim.so.1:_ZN4wbem10mem_config31MemoryAllocationSettingsFactory12getGoalNamesB5cxx11ERKSt6vectorI16device_discoverySaIS3_EE
libixpdimm-cim.so.1:_ZN4wbem10mem_config31MemoryAllocationSettingsFactory12isADeviceUidEPKc
libixpdimm-cim.so.1:_ZN4wbem10mem_config31MemoryAllocationSettingsFactory12isAssociatedERKNSt7__cxx1112basic_stringIcSt11char_traitsIcESaIcEEEPNS_9framework8InstanceESC_
libixpdimm-cim.so.1:_ZN4wbem10mem_config31MemoryAllocationSettingsFactory13getRegionTypeENSt7__cxx1112basic_stringIcSt11char_traitsIcESaIcEEE
libixpdimm-cim.so.1:_ZN4wbem10mem_config31MemoryAllocationSettingsFactory14isGoalInstanceEPKNS_9framework8InstanceE
libixpdimm-cim.so.1:_ZN4wbem10mem_config31MemoryAllocationSettingsFactory15getInstanceTypeENSt7__cxx1112basic_stringIcSt11char_traitsIcESaIcEEE
libixpdimm-cim.so.1:_ZN4wbem10mem_config31MemoryAllocationSettingsFactory16getInstanceNamesEv
libixpdimm-cim.so.1:_ZN4wbem10mem_config31MemoryAllocationSettingsFactory17addIlsetsFromGoalERSt6vectorINS0_13InterleaveSetESaIS3_EEPK11config_goal
libixpdimm-cim.so.1:_ZN4wbem10mem_config31MemoryAllocationSettingsFactory17isAppDirectMemoryENSt7__cxx1112basic_stringIcSt11char_traitsIcESaIcEEE
libixpdimm-cim.so.1:_ZN4wbem10mem_config31MemoryAllocationSettingsFactory18finishGoalInstanceEPNS_9framework8InstanceENSt7__cxx1112basic_stringIcSt11char_traitsIcESaIcEEESt6vectorISA_SaISA_EE
libixpdimm-cim.so.1:_ZN4wbem10mem_config31MemoryAllocationSettingsFactory18validateNameFormatENSt7__cxx1112basic_stringIcSt11char_traitsIcESaIcEEE
libixpdimm-cim.so.1:_ZN4wbem10mem_config31MemoryAllocationSettingsFactory19getHandleForDimmUidERKSt6vectorI16device_discoverySaIS3_EEPKc
libixpdimm-cim.so.1:_ZN4wbem10mem_config31MemoryAllocationSettingsFactory19isAppDirectInstanceEPKNS_9framework8InstanceE
libixpdimm-cim.so.1:_ZN4wbem10mem_config31MemoryAllocationSettingsFactory20getUidFromHandleInfoEtjjPc
libixpdimm-cim.so.1:_ZN4wbem10mem_config31MemoryAllocationSettingsFactory21getAppDirectMemoryUidEPKNS_9framework8InstanceEPc
libixpdimm-cim.so.1:_ZN4wbem10mem_config31MemoryAllocationSettingsFactory21getCurrentConfigNamesB5cxx11ERKSt6vectorI16device_discoverySaIS3_EE
libixpdimm-cim.so.1:_ZN4wbem10mem_config31MemoryAllocationSettingsFactory21getGoalNamesForSocketB5cxx11ERKSt6vectorI16device_discoverySaIS3_EEt
libixpdimm-cim.so.1:_ZN4wbem10mem_config31MemoryAllocationSettingsFactory21getInterleaveSetIndexENSt7__cxx1112basic_stringIcSt11char_traitsIcESaIcEEE
libixpdimm-cim.so.1:_ZN4wbem10mem_config31MemoryAllocationSettingsFactory21getMemoryControllerIdENSt7__cxx1112basic_stringIcSt11char_traitsIcESaIcEEE
libixpdimm-cim.so.1:_ZN4wbem10mem_config31MemoryAllocationSettingsFactory21populateAttributeListERSt6vectorINSt7__cxx1112basic_stringIcSt11char_traitsIcESaIcEEESaIS8_EE
libixpdimm-cim.so.1:_ZN4wbem10mem_config31MemoryAllocationSettingsFactory23deviceUidMatchesSettingEPKNS_9framework8InstanceEPKc
libixpdimm-cim.so.1:_ZN4wbem10mem_config31MemoryAllocationSettingsFactory23finishAppDirectInstanceEPNS_9framework8InstanceERNS0_13InterleaveSetESt6vectorINSt7__cxx1112basic_stringIcSt11char_traitsIcESaIcEEESaISD_EE
libixpdimm-cim.so.1:_ZN4wbem10mem_config31MemoryAllocationSettingsFactory25getInterleaveSetFromGoalsERKSt6vectorI16device_discoverySaIS3_EENSt7__cxx1112basic_stringIcSt11char_traitsIcESaIcEEE
libixpdimm-cim.so.1:_ZN4wbem10mem_config31MemoryAllocationSettingsFactory25getInterleaveSetFromPoolsERKSt6vectorI4poolSaIS3_EENSt7__cxx1112basic_stringIcSt11char_traitsIcESaIcEEE
libixpdimm-cim.so.1:_ZN4wbem10mem_config31MemoryAllocationSettingsFactory25validateAndReturnSocketIdENSt7__cxx1112basic_stringIcSt11char_traitsIcESaIcEEE
libixpdimm-cim.so.1:_ZN4wbem10mem_config31MemoryAllocationSettingsFactory26getMemoryCapacityForSocketEPK4poolt
libixpdimm-cim.so.1:_ZN4wbem10mem_config31MemoryAllocationSettingsFactory27finishCurrentConfigInstanceEPNS_9framework8InstanceENSt7__cxx1112basic_stringIcSt11char_traitsIcESaIcEEESt6vectorISA_SaISA_EE
libixpdimm-cim.so.1:_ZN4wbem10mem_config31MemoryAllocationSettingsFactory29finishMemoryOrStorageInstanceEPNS_9framework8InstanceEySt6vectorINSt7__cxx1112basic_stringIcSt11char_traitsIcESaIcEEESaISB_EE
libixpdimm-cim.so.1:_ZN4wbem10mem_config31MemoryAllocationSettingsFactory29getMemoryReservationFromGoalsERKSt6vectorI16device_discoverySaIS3_EENSt7__cxx1112basic_stringIcSt11char_traitsIcESaIcEEE
libixpdimm-cim.so.1:_ZN4wbem10mem_config31MemoryAllocationSettingsFactory29getMemoryReservationFromPoolsERKSt6vectorI4poolSaIS3_EENSt7__cxx1112basic_stringIcSt11char_traitsIcESaIcEEE
libixpdimm-cim.so.1:_ZN4wbem10mem_config31MemoryAllocationSettingsFactory30getIlsetUidFromSettingInstanceEPKNS_9framework8InstanceEPc
libixpdimm-cim.so.1:_ZN4wbem10mem_config31MemoryAllocationSettingsFactory30getSocketIdFromSettingInstanceEPKNS_9framework8InstanceE
libixpdimm-cim.so.1:_ZN4wbem10mem_config31MemoryAllocationSettingsFactory31getChannelIdFromSettingInstanceEPKNS_9framework8InstanceE
libixpdimm-cim.so.1:_ZN4wbem10mem_config31MemoryAllocationSettingsFactory33isMemoryModeCurrentConfigInstanceEPKNS_9framework8InstanceE
libixpdimm-cim.so.1:_ZN4wbem10mem_config31MemoryAllocationSettingsFactory35getInstanceIdStrFromSettingInstanceB5cxx11EPKNS_9framework8InstanceE
libixpdimm-cim.so.1:_ZN4wbem10mem_config31MemoryAllocationSettingsFactory36getIndexOfDimmInPoolOrReturnNotFoundEPK4poolPKc
libixpdimm-cim.so.1:_ZN4wbem10mem_config31MemoryAllocationSettingsFactory37isSettingAssociatedWithMemoryInstanceEPKNS_9framework8InstanceES5_
libixpdimm-cim.so.1:_ZN4wbem10mem_config31MemoryAllocationSettingsFactory40getMemoryControllerIdFromSettingInstanceEPKNS_9framework8InstanceE
libixpdimm-cim.so.1:_ZN4wbem10mem_config31MemoryAllocationSettingsFactory46isAppDirectSettingAssociatedWithMemoryInstanceEPKNS_9framework8InstanceES5_
libixpdimm-cim.so.1:_ZN4wbem10mem_config31MemoryAllocationSettingsFactory6isGoalENSt7__cxx1112basic_stringIcSt11char_traitsIcESaIcEEE
libixpdimm-cim.so.1:_ZN4wbem10mem_config31MemoryAllocationSettingsFactory8addIlsetERSt6vectorINS0_13InterleaveSetESaIS3_EEPK11config_goali
libixpdimm-cim.so.1:_ZN4wbem10mem_config31MemoryAllocationSettingsFactory8isMemoryENSt7__cxx1112basic_stringIcSt11char_traitsIcESaIcEEE
libixpdimm-cim.so.1:_ZN4wbem10mem_config31MemoryAllocationSettingsFactoryC1Ev
libixpdimm-cim.so.1:_ZN4wbem10mem_config31MemoryAllocationSettingsFactoryC2Ev
libixpdimm-cim.so.1:_ZN4wbem10mem_config31MemoryAllocationSettingsFactoryD0Ev
libixpdimm-cim.so.1:_ZN4wbem10mem_config31MemoryAllocationSettingsFactoryD1Ev
libixpdimm-cim.so.1:_ZN4wbem10mem_config31MemoryAllocationSettingsFactoryD2Ev
libixpdimm-cim.so.1:_ZN4wbem10mem_config33MemoryConfigurationServiceFactory11dimmHasGoalEPKc
libixpdimm-cim.so.1:_ZN4wbem10mem_config33MemoryConfigurationServiceFactory11getInstanceERNS_9framework10ObjectPathERSt6vectorINSt7__cxx1112basic_stringIcSt11char_traitsIcESaIcEEESaISB_EE
libixpdimm-cim.so.1:_ZN4wbem10mem_config33MemoryConfigurationServiceFactory12validatePathERNS_9framework10ObjectPathENSt7__cxx1112basic_stringIcSt11char_traitsIcESaIcEEE
libixpdimm-cim.so.1:_ZN4wbem10mem_config33MemoryConfigurationServiceFactory12validatePoolENSt7__cxx1112basic_stringIcSt11char_traitsIcESaIcEEE
libixpdimm-cim.so.1:_ZN4wbem10mem_config33MemoryConfigurationServiceFactory13executeMethodERjNSt7__cxx1112basic_stringIcSt11char_traitsIcESaIcEEERNS_9framework10ObjectPathERSt3mapIS8_NS9_9AttributeESt4lessIS8_ESaISt4pairIKS8_SD_EEESL_
libixpdimm-cim.so.1:_ZN4wbem10mem_config33MemoryConfigurationServiceFactory14deleteInstanceERNS_9framework10ObjectPathE
libixpdimm-cim.so.1:_ZN4wbem10mem_config33MemoryConfigurationServiceFactory15socketIdIsValidEt
libixpdimm-cim.so.1:_ZN4wbem10mem_config33MemoryConfigurationServiceFactory16getInstanceNamesEv
libixpdimm-cim.so.1:_ZN4wbem10mem_config33MemoryConfigurationServiceFactory16validateDimmListERKNSt7__cxx1112basic_stringIcSt11char_traitsIcESaIcEEESt6vectorIS7_SaIS7_EE
libixpdimm-cim.so.1:_ZN4wbem10mem_config33MemoryConfigurationServiceFactory19getNewMemorySettingERNSt7__cxx1112basic_stringIcSt11char_traitsIcESaIcEEE
libixpdimm-cim.so.1:_ZN4wbem10mem_config33MemoryConfigurationServiceFactory19removeGoalFromDimmsESt6vectorINSt7__cxx1112basic_stringIcSt11char_traitsIcESaIcEEESaIS8_EE
libixpdimm-cim.so.1:_ZN4wbem10mem_config33MemoryConfigurationServiceFactory20updateRequestForDimmERK11config_goaltjyRN4core16memory_allocator23MemoryAllocationRequestE
libixpdimm-cim.so.1:_ZN4wbem10mem_config33MemoryConfigurationServiceFactory21populateAttributeListERSt6vectorINSt7__cxx1112basic_stringIcSt11char_traitsIcESaIcEEESaIS8_EE
libixpdimm-cim.so.1:_ZN4wbem10mem_config33MemoryConfigurationServiceFactory22executeMethodExportUriERjRNS_9framework10ObjectPathERSt3mapINSt7__cxx1112basic_stringIcSt11char_traitsIcESaIcEEENS3_9AttributeESt4lessISC_ESaISt4pairIKSC_SD_EEESL_
libixpdimm-cim.so.1:_ZN4wbem10mem_config33MemoryConfigurationServiceFactory23executeMethodRemoveGoalERjRNS_9framework10ObjectPathERSt3mapINSt7__cxx1112basic_stringIcSt11char_traitsIcESaIcEEENS3_9AttributeESt4lessISC_ESaISt4pairIKSC_SD_EEESL_
libixpdimm-cim.so.1:_ZN4wbem10mem_config33MemoryConfigurationServiceFactory23exportSystemConfigToUriERKNSt7__cxx1112basic_stringIcSt11char_traitsIcESaIcEEE
libixpdimm-cim.so.1:_ZN4wbem10mem_config33MemoryConfigurationServiceFactory23populateRequestFromPathERKNSt7__cxx1112basic_stringIcSt11char_traitsIcESaIcEEERKSt6vectorIjSaIjEERN4core16memory_allocator23MemoryAllocationRequestE
libixpdimm-cim.so.1:_ZN4wbem10mem_config33MemoryConfigurationServiceFactory23validateSettingsStringsESt6vectorINSt7__cxx1112basic_stringIcSt11char_traitsIcESaIcEEESaIS8_EE
libixpdimm-cim.so.1:_ZN4wbem10mem_config33MemoryConfigurationServiceFactory24exportSystemConfigToPathERKNSt7__cxx1112basic_stringIcSt11char_traitsIcESaIcEEE
libixpdimm-cim.so.1:_ZN4wbem10mem_config33MemoryConfigurationServiceFactory24importDimmConfigsFromURIERKNSt7__cxx1112basic_stringIcSt11char_traitsIcESaIcEEESt6vectorIS7_SaIS7_EE
libixpdimm-cim.so.1:_ZN4wbem10mem_config33MemoryConfigurationServiceFactory25importDimmConfigsFromPathERKNSt7__cxx1112basic_stringIcSt11char_traitsIcESaIcEEESt6vectorIS7_SaIS7_EE
libixpdimm-cim.so.1:_ZN4wbem10mem_config33MemoryConfigurationServiceFactory25memAllocSettingsToRequestERKSt6vectorINSt7__cxx1112basic_stringIcSt11char_traitsIcESaIcEEESaIS8_EE
libixpdimm-cim.so.1:_ZN4wbem10mem_config33MemoryConfigurationServiceFactory26executeMethodImportFromUriERjRNS_9framework10ObjectPathERSt3mapINSt7__cxx1112basic_stringIcSt11char_traitsIcESaIcEEENS3_9AttributeESt4lessISC_ESaISt4pairIKSC_SD_EEESL_
libixpdimm-cim.so.1:_ZN4wbem10mem_config33MemoryConfigurationServiceFactory26getSocketIdForProcessorRefENSt7__cxx1112basic_stringIcSt11char_traitsIcESaIcEEE
libixpdimm-cim.so.1:_ZN4wbem10mem_config33MemoryConfigurationServiceFactory26removeSettingsWithSocketIdERSt6vectorINSt7__cxx1112basic_stringIcSt11char_traitsIcESaIcEEESaIS8_EEt
libixpdimm-cim.so.1:_ZN4wbem10mem_config33MemoryConfigurationServiceFactory26validateSystemProcessorRefENSt7__cxx1112basic_stringIcSt11char_traitsIcESaIcEEE
libixpdimm-cim.so.1:_ZN4wbem10mem_config33MemoryConfigurationServiceFactory27getDimmsForMemAllocSettingsESt6vectorINSt7__cxx1112basic_stringIcSt11char_traitsIcESaIcEEESaIS8_EERS2_IN4core16memory_allocator4DimmESaISD_EE
libixpdimm-cim.so.1:_ZN4wbem10mem_config33MemoryConfigurationServiceFactory27getSettingsStringsForSocketERSt6vectorINSt7__cxx1112basic_stringIcSt11char_traitsIcESaIcEEESaIS8_EEt
libixpdimm-cim.so.1:_ZN4wbem10mem_config33MemoryConfigurationServiceFactory28getSocketIdForSettingsStringENSt7__cxx1112basic_stringIcSt11char_traitsIcESaIcEEE
libixpdimm-cim.so.1:_ZN4wbem10mem_config33MemoryConfigurationServiceFactory28requestLeavesSpaceForStorageERKN4core16memory_allocator23MemoryAllocationRequestE
libixpdimm-cim.so.1:_ZN4wbem10mem_config33MemoryConfigurationServiceFactory29executeMethodAllocateFromPoolERjRNS_9framework10ObjectPathERSt3mapINSt7__cxx1112basic_stringIcSt11char_traitsIcESaIcEEENS3_9AttributeESt4lessISC_ESaISt4pairIKSC_SD_EEESL_
libixpdimm-cim.so.1:_ZN4wbem10mem_config33MemoryConfigurationServiceFactory29getManageableDimmIDsForSocketB5cxx11Ej
libixpdimm-cim.so.1:_ZN4wbem10mem_config33MemoryConfigurationServiceFactory29getReturnCodeFromLibExceptionERKNS_9exception20NvmExceptionLibErrorE
libixpdimm-cim.so.1:_ZN4wbem10mem_config33MemoryConfigurationServiceFactory32isValidAppDirectExtentForRequestERKSt6vectorIN4core16memory_allocator15AppDirectExtentESaIS5_EE
libixpdimm-cim.so.1:_ZN4wbem10mem_config33MemoryConfigurationServiceFactory33settingsStringsToRequestedExtentsERKSt6vectorINSt7__cxx1112basic_stringIcSt11char_traitsIcESaIcEEESaIS8_EERyRS2_IN4core16memory_allocator15AppDirectExtentESaISG_EE
libixpdimm-cim.so.1:_ZN4wbem10mem_config33MemoryConfigurationServiceFactory34areNewMemoryOnlySettingsAllTheSameESt6vectorINSt7__cxx1112basic_stringIcSt11char_traitsIcESaIcEEESaIS8_EE
libixpdimm-cim.so.1:_ZN4wbem10mem_config33MemoryConfigurationServiceFactoryC1ERKS1_
libixpdimm-cim.so.1:_ZN4wbem10mem_config33MemoryConfigurationServiceFactoryC1Ev
libixpdimm-cim.so.1:_ZN4wbem10mem_config33MemoryConfigurationServiceFactoryC2ERKS1_
libixpdimm-cim.so.1:_ZN4wbem10mem_config33MemoryConfigurationServiceFactoryC2Ev
libixpdimm-cim.so.1:_ZN4wbem10mem_config33MemoryConfigurationServiceFactoryD0Ev
libixpdimm-cim.so.1:_ZN4wbem10mem_config33MemoryConfigurationServiceFactoryD1Ev
libixpdimm-cim.so.1:_ZN4wbem10mem_config33MemoryConfigurationServiceFactoryD2Ev
libixpdimm-cim.so.1:_ZN4wbem10mem_config33MemoryConfigurationServiceFactoryaSERKS1_
libixpdimm-cim.so.1:_ZN4wbem10mem_config38MemoryConfigurationCapabilitiesFactory11getInstanceERNS_9framework10ObjectPathERSt6vectorINSt7__cxx1112basic_stringIcSt11char_traitsIcESaIcEEESaISB_EE
libixpdimm-cim.so.1:_ZN4wbem10mem_config38MemoryConfigurationCapabilitiesFactory16getInstanceNamesEv
libixpdimm-cim.so.1:_ZN4wbem10mem_config38MemoryConfigurationCapabilitiesFactory21populateAttributeListERSt6vectorINSt7__cxx1112basic_stringIcSt11char_traitsIcESaIcEEESaIS8_EE
libixpdimm-cim.so.1:_ZN4wbem10mem_config38MemoryConfigurationCapabilitiesFactoryC1Ev
libixpdimm-cim.so.1:_ZN4wbem10mem_config38MemoryConfigurationCapabilitiesFactoryC2Ev
libixpdimm-cim.so.1:_ZN4wbem10mem_config38MemoryConfigurationCapabilitiesFactoryD0Ev
libixpdimm-cim.so.1:_ZN4wbem10mem_config38MemoryConfigurationCapabilitiesFactoryD1Ev
libixpdimm-cim.so.1:_ZN4wbem10mem_config38MemoryConfigurationCapabilitiesFactoryD2Ev
libixpdimm-cim.so.1:_ZN4wbem11performance24PerformanceMetricFactory11getInstanceERNS_9framework10ObjectPathERSt6vectorINSt7__cxx1112basic_stringIcSt11char_traitsIcESaIcEEESaISB_EE
libixpdimm-cim.so.1:_ZN4wbem11performance24PerformanceMetricFactory12isAssociatedERKNSt7__cxx1112basic_stringIcSt11char_traitsIcESaIcEEEPNS_9framework8InstanceESC_
libixpdimm-cim.so.1:_ZN4wbem11performance24PerformanceMetricFactory14stringToMetricERKNSt7__cxx1112basic_stringIcSt11char_traitsIcESaIcEEE
libixpdimm-cim.so.1:_ZN4wbem11performance24PerformanceMetricFactory15splitInstanceIDERKNS_9framework9AttributeERNSt7__cxx1112basic_stringIcSt11char_traitsIcESaIcEEERNS0_11metric_typeE
libixpdimm-cim.so.1:_ZN4wbem11performance24PerformanceMetricFactory16getInstanceNamesEv
libixpdimm-cim.so.1:_ZN4wbem11performance24PerformanceMetricFactory21getDeviceSerialNumberB5cxx11EPKc
libixpdimm-cim.so.1:_ZN4wbem11performance24PerformanceMetricFactory21populateAttributeListERSt6vectorINSt7__cxx1112basic_stringIcSt11char_traitsIcESaIcEEESaIS8_EE
libixpdimm-cim.so.1:_ZN4wbem11performance24PerformanceMetricFactory23getValueForDeviceMetricEPKcNS0_11metric_typeE
libixpdimm-cim.so.1:_ZN4wbem11performance24PerformanceMetricFactory25getInstanceIdNameFromTypeENS0_11metric_typeERKNSt7__cxx1112basic_stringIcSt11char_traitsIcESaIcEEE
libixpdimm-cim.so.1:_ZN4wbem11performance24PerformanceMetricFactory28getMetricElementNameFromTypeB5cxx11ENS0_11metric_typeE
libixpdimm-cim.so.1:_ZN4wbem11performance24PerformanceMetricFactoryC1Ev
libixpdimm-cim.so.1:_ZN4wbem11performance24PerformanceMetricFactoryC2Ev
libixpdimm-cim.so.1:_ZN4wbem11performance24PerformanceMetricFactoryD0Ev
libixpdimm-cim.so.1:_ZN4wbem11performance24PerformanceMetricFactoryD1Ev
libixpdimm-cim.so.1:_ZN4wbem11performance24PerformanceMetricFactoryD2Ev
libixpdimm-cim.so.1:_ZN4wbem11performance28NVDIMMPerformanceViewFactory11getInstanceERNS_9framework10ObjectPathERSt6vectorINSt7__cxx1112basic_stringIcSt11char_traitsIcESaIcEEESaISB_EE
libixpdimm-cim.so.1:_ZN4wbem11performance28NVDIMMPerformanceViewFactory16getInstanceNamesEv
libixpdimm-cim.so.1:_ZN4wbem11performance28NVDIMMPerformanceViewFactory21populateAttributeListERSt6vectorINSt7__cxx1112basic_stringIcSt11char_traitsIcESaIcEEESaIS8_EE
libixpdimm-cim.so.1:_ZN4wbem11performance28NVDIMMPerformanceViewFactoryC1Ev
libixpdimm-cim.so.1:_ZN4wbem11performance28NVDIMMPerformanceViewFactoryC2Ev
libixpdimm-cim.so.1:_ZN4wbem11performance28NVDIMMPerformanceViewFactoryD0Ev
libixpdimm-cim.so.1:_ZN4wbem11performance28NVDIMMPerformanceViewFactoryD1Ev
libixpdimm-cim.so.1:_ZN4wbem11performance28NVDIMMPerformanceViewFactoryD2Ev
libixpdimm-cim.so.1:_ZN4wbem11performance31PerformanceMetricServiceFactory11getInstanceERNS_9framework10ObjectPathERSt6vectorINSt7__cxx1112basic_stringIcSt11char_traitsIcESaIcEEESaISB_EE
libixpdimm-cim.so.1:_ZN4wbem11performance31PerformanceMetricServiceFactory14modifyInstanceERNS_9framework10ObjectPathERSt3mapINSt7__cxx1112basic_stringIcSt11char_traitsIcESaIcEEENS2_9AttributeESt4lessISB_ESaISt4pairIKSB_SC_EEE
libixpdimm-cim.so.1:_ZN4wbem11performance31PerformanceMetricServiceFactory16getInstanceNamesEv
libixpdimm-cim.so.1:_ZN4wbem11performance31PerformanceMetricServiceFactory18validateObjectPathERNS_9framework10ObjectPathENSt7__cxx1112basic_stringIcSt11char_traitsIcESaIcEEE
libixpdimm-cim.so.1:_ZN4wbem11performance31PerformanceMetricServiceFactory21populateAttributeListERSt6vectorINSt7__cxx1112basic_stringIcSt11char_traitsIcESaIcEEESaIS8_EE
libixpdimm-cim.so.1:_ZN4wbem11performance31PerformanceMetricServiceFactoryC1Ev
libixpdimm-cim.so.1:_ZN4wbem11performance31PerformanceMetricServiceFactoryC2Ev
libixpdimm-cim.so.1:_ZN4wbem11performance31PerformanceMetricServiceFactoryD0Ev
libixpdimm-cim.so.1:_ZN4wbem11performance31PerformanceMetricServiceFactoryD1Ev
libixpdimm-cim.so.1:_ZN4wbem11performance31PerformanceMetricServiceFactoryD2Ev
libixpdimm-cim.so.1:_ZN4wbem11performance34PerformanceMetricDefinitionFactory11getInstanceERNS_9framework10ObjectPathERSt6vectorINSt7__cxx1112basic_stringIcSt11char_traitsIcESaIcEEESaISB_EE
libixpdimm-cim.so.1:_ZN4wbem11performance34PerformanceMetricDefinitionFactory11getMetricIdB5cxx11ENS0_11metric_typeE
libixpdimm-cim.so.1:_ZN4wbem11performance34PerformanceMetricDefinitionFactory13getMetricNameB5cxx11ENS0_11metric_typeE
libixpdimm-cim.so.1:_ZN4wbem11performance34PerformanceMetricDefinitionFactory14getMetricUnitsB5cxx11ENS0_11metric_typeE
libixpdimm-cim.so.1:_ZN4wbem11performance34PerformanceMetricDefinitionFactory15metricTypeToStrENS0_11metric_typeERKNSt7__cxx1112basic_stringIcSt11char_traitsIcESaIcEEE
libixpdimm-cim.so.1:_ZN4wbem11performance34PerformanceMetricDefinitionFactory16getInstanceNamesEv
libixpdimm-cim.so.1:_ZN4wbem11performance34PerformanceMetricDefinitionFactory17getMetricDataTypeENS0_11metric_typeE
libixpdimm-cim.so.1:_ZN4wbem11performance34PerformanceMetricDefinitionFactory17metricTypeFromStrERKNSt7__cxx1112basic_stringIcSt11char_traitsIcESaIcEEE
libixpdimm-cim.so.1:_ZN4wbem11performance34PerformanceMetricDefinitionFactory18getMetricTimeScopeENS0_11metric_typeE
libixpdimm-cim.so.1:_ZN4wbem11performance34PerformanceMetricDefinitionFactory20getMetricElementNameB5cxx11ENS0_11metric_typeE
libixpdimm-cim.so.1:_ZN4wbem11performance34PerformanceMetricDefinitionFactory21getMetricIsContinuousENS0_11metric_typeE
libixpdimm-cim.so.1:_ZN4wbem11performance34PerformanceMetricDefinitionFactory21populateAttributeListERSt6vectorINSt7__cxx1112basic_stringIcSt11char_traitsIcESaIcEEESaIS8_EE
libixpdimm-cim.so.1:_ZN4wbem11performance34PerformanceMetricDefinitionFactory24metricTypeFromObjectPathERKNS_9framework10ObjectPathE
libixpdimm-cim.so.1:_ZN4wbem11performance34PerformanceMetricDefinitionFactoryC1Ev
libixpdimm-cim.so.1:_ZN4wbem11performance34PerformanceMetricDefinitionFactoryC2Ev
libixpdimm-cim.so.1:_ZN4wbem11performance34PerformanceMetricDefinitionFactoryD0Ev
libixpdimm-cim.so.1:_ZN4wbem11performance34PerformanceMetricDefinitionFactoryD1Ev
libixpdimm-cim.so.1:_ZN4wbem11performance34PerformanceMetricDefinitionFactoryD2Ev
libixpdimm-cim.so.1:_ZN4wbem11performance43PerformanceMetricServiceCapabilitiesFactory11getInstanceERNS_9framework10ObjectPathERSt6vectorINSt7__cxx1112basic_stringIcSt11char_traitsIcESaIcEEESaISB_EE
libixpdimm-cim.so.1:_ZN4wbem11performance43PerformanceMetricServiceCapabilitiesFactory16getInstanceNamesEv
libixpdimm-cim.so.1:_ZN4wbem11performance43PerformanceMetricServiceCapabilitiesFactory21populateAttributeListERSt6vectorINSt7__cxx1112basic_stringIcSt11char_traitsIcESaIcEEESaIS8_EE
libixpdimm-cim.so.1:_ZN4wbem11performance43PerformanceMetricServiceCapabilitiesFactoryC1Ev
libixpdimm-cim.so.1:_ZN4wbem11performance43PerformanceMetricServiceCapabilitiesFactoryC2Ev
libixpdimm-cim.so.1:_ZN4wbem11performance43PerformanceMetricServiceCapabilitiesFactoryD0Ev
libixpdimm-cim.so.1:_ZN4wbem11performance43PerformanceMetricServiceCapabilitiesFactoryD1Ev
libixpdimm-cim.so.1:_ZN4wbem11performance43PerformanceMetricServiceCapabilitiesFactoryD2Ev
libixpdimm-cim.so.1:_ZN4wbem11pmem_config20NamespaceViewFactory11getInstanceERNS_9framework10ObjectPathERSt6vectorINSt7__cxx1112basic_stringIcSt11char_traitsIcESaIcEEESaISB_EE
libixpdimm-cim.so.1:_ZN4wbem11pmem_config20NamespaceViewFactory16getInstanceNamesEv
libixpdimm-cim.so.1:_ZN4wbem11pmem_config20NamespaceViewFactory18namespaceTypeToStrB5cxx11ERK14namespace_type
libixpdimm-cim.so.1:_ZN4wbem11pmem_config20NamespaceViewFactory19getNamespaceDetailsERKNSt7__cxx1112basic_stringIcSt11char_traitsIcESaIcEEE
libixpdimm-cim.so.1:_ZN4wbem11pmem_config20NamespaceViewFactory19getNamespaceUidListB5cxx11Ev
libixpdimm-cim.so.1:_ZN4wbem11pmem_config20NamespaceViewFactory19getUnderlyingPMTypeB5cxx11ERK17namespace_details
libixpdimm-cim.so.1:_ZN4wbem11pmem_config20NamespaceViewFactory20namespaceHealthToStrB5cxx11ERK16namespace_health
libixpdimm-cim.so.1:_ZN4wbem11pmem_config20NamespaceViewFactory21populateAttributeListERSt6vectorINSt7__cxx1112basic_stringIcSt11char_traitsIcESaIcEEESaIS8_EE
libixpdimm-cim.so.1:_ZN4wbem11pmem_config20NamespaceViewFactory22namespaceOptimizeToStrB5cxx11ERKh
libixpdimm-cim.so.1:_ZN4wbem11pmem_config20NamespaceViewFactory24namespaceOptimizeToValueERKh
libixpdimm-cim.so.1:_ZN4wbem11pmem_config20NamespaceViewFactory25namespaceEnableStateToStrB5cxx11ERK22namespace_enable_state
libixpdimm-cim.so.1:_ZN4wbem11pmem_config20NamespaceViewFactory34namespaceMemoryPageAllocationToStrB5cxx11E32namespace_memory_page_allocation
libixpdimm-cim.so.1:_ZN4wbem11pmem_config20NamespaceViewFactoryC1Ev
libixpdimm-cim.so.1:_ZN4wbem11pmem_config20NamespaceViewFactoryC2Ev
libixpdimm-cim.so.1:_ZN4wbem11pmem_config20NamespaceViewFactoryD0Ev
libixpdimm-cim.so.1:_ZN4wbem11pmem_config20NamespaceViewFactoryD1Ev
libixpdimm-cim.so.1:_ZN4wbem11pmem_config20NamespaceViewFactoryD2Ev
libixpdimm-cim.so.1:_ZN4wbem11pmem_config24NamespaceSettingsFactory11getInstanceERNS_9framework10ObjectPathERSt6vectorINSt7__cxx1112basic_stringIcSt11char_traitsIcESaIcEEESaISB_EE
libixpdimm-cim.so.1:_ZN4wbem11pmem_config24NamespaceSettingsFactory16getInstanceNamesEv
libixpdimm-cim.so.1:_ZN4wbem11pmem_config24NamespaceSettingsFactory18getNamespacePMTypeERK17namespace_details
libixpdimm-cim.so.1:_ZN4wbem11pmem_config24NamespaceSettingsFactory21populateAttributeListERSt6vectorINSt7__cxx1112basic_stringIcSt11char_traitsIcESaIcEEESaIS8_EE
libixpdimm-cim.so.1:_ZN4wbem11pmem_config24NamespaceSettingsFactory26namespaceResourceTypeToStrB5cxx11ERK14namespace_type
libixpdimm-cim.so.1:_ZN4wbem11pmem_config24NamespaceSettingsFactory28namespaceResourceTypeToValueERK14namespace_type
libixpdimm-cim.so.1:_ZN4wbem11pmem_config24NamespaceSettingsFactoryC1Ev
libixpdimm-cim.so.1:_ZN4wbem11pmem_config24NamespaceSettingsFactoryC2Ev
libixpdimm-cim.so.1:_ZN4wbem11pmem_config24NamespaceSettingsFactoryD0Ev
libixpdimm-cim.so.1:_ZN4wbem11pmem_config24NamespaceSettingsFactoryD1Ev
libixpdimm-cim.so.1:_ZN4wbem11pmem_config24NamespaceSettingsFactoryD2Ev
libixpdimm-cim.so.1:_ZN4wbem11pmem_config27PersistentMemoryPoolFactory11getInstanceERNS_9framework10ObjectPathERSt6vectorINSt7__cxx1112basic_stringIcSt11char_traitsIcESaIcEEESaISB_EE
libixpdimm-cim.so.1:_ZN4wbem11pmem_config27PersistentMemoryPoolFactory13executeMethodERjNSt7__cxx1112basic_stringIcSt11char_traitsIcESaIcEEERNS_9framework10ObjectPathERSt3mapIS8_NS9_9AttributeESt4lessIS8_ESaISt4pairIKS8_SD_EEESL_
libixpdimm-cim.so.1:_ZN4wbem11pmem_config27PersistentMemoryPoolFactory16getInstanceNamesEv
libixpdimm-cim.so.1:_ZN4wbem11pmem_config27PersistentMemoryPoolFactory21getSupportedSizeRangeERKNSt7__cxx1112basic_stringIcSt11char_traitsIcESaIcEEERySA_SA_SA_SA_SA_Rh
libixpdimm-cim.so.1:_ZN4wbem11pmem_config27PersistentMemoryPoolFactory21getSupportedSizeRangeERKNSt7__cxx1112basic_stringIcSt11char_traitsIcESaIcEEEh
libixpdimm-cim.so.1:_ZN4wbem11pmem_config27PersistentMemoryPoolFactory21populateAttributeListERSt6vectorINSt7__cxx1112basic_stringIcSt11char_traitsIcESaIcEEESaIS8_EE
libixpdimm-cim.so.1:_ZN4wbem11pmem_config27PersistentMemoryPoolFactoryC1Ev
libixpdimm-cim.so.1:_ZN4wbem11pmem_config27PersistentMemoryPoolFactoryC2Ev
libixpdimm-cim.so.1:_ZN4wbem11pmem_config27PersistentMemoryPoolFactoryD0Ev
libixpdimm-cim.so.1:_ZN4wbem11pmem_config27PersistentMemoryPoolFactoryD1Ev
libixpdimm-cim.so.1:_ZN4wbem11pmem_config27PersistentMemoryPoolFactoryD2Ev
libixpdimm-cim.so.1:_ZN4wbem11pmem_config30PersistentMemoryServiceFactory11getHostNameB5cxx11Ev
libixpdimm-cim.so.1:_ZN4wbem11pmem_config30PersistentMemoryServiceFactory11getInstanceERNS_9framework10ObjectPathERSt6vectorINSt7__cxx1112basic_stringIcSt11char_traitsIcESaIcEEESaISB_EE
libixpdimm-cim.so.1:_ZN4wbem11pmem_config30PersistentMemoryServiceFactory12validatePoolENSt7__cxx1112basic_stringIcSt11char_traitsIcESaIcEEE
libixpdimm-cim.so.1:_ZN4wbem11pmem_config30PersistentMemoryServiceFactory13executeMethodERjNSt7__cxx1112basic_stringIcSt11char_traitsIcESaIcEEERNS_9framework10ObjectPathERSt3mapIS8_NS9_9AttributeESt4lessIS8_ESaISt4pairIKS8_SD_EEESL_
libixpdimm-cim.so.1:_ZN4wbem11pmem_config30PersistentMemoryServiceFactory15createNamespaceERKNS1_21createNamespaceParamsERNSt7__cxx1112basic_stringIcSt11char_traitsIcESaIcEEE
libixpdimm-cim.so.1:_ZN4wbem11pmem_config30PersistentMemoryServiceFactory15createNamespaceERNSt7__cxx1112basic_stringIcSt11char_traitsIcESaIcEEES7_tS7_yyttttNS_10mem_config46MemoryAllocationSettingsInterleaveSizeExponentESA_bt
libixpdimm-cim.so.1:_ZN4wbem11pmem_config30PersistentMemoryServiceFactory15deleteNamespaceERKNSt7__cxx1112basic_stringIcSt11char_traitsIcESaIcEEE
libixpdimm-cim.so.1:_ZN4wbem11pmem_config30PersistentMemoryServiceFactory15modifyNamespaceERSt3mapINSt7__cxx1112basic_stringIcSt11char_traitsIcESaIcEEENS_9framework9AttributeESt4lessIS8_ESaISt4pairIKS8_SA_EEESI_Rj
libixpdimm-cim.so.1:_ZN4wbem11pmem_config30PersistentMemoryServiceFactory16allocateFromPoolERSt3mapINSt7__cxx1112basic_stringIcSt11char_traitsIcESaIcEEENS_9framework9AttributeESt4lessIS8_ESaISt4pairIKS8_SA_EEESI_Rj
libixpdimm-cim.so.1:_ZN4wbem11pmem_config30PersistentMemoryServiceFactory16getInstanceNamesEv
libixpdimm-cim.so.1:_ZN4wbem11pmem_config30PersistentMemoryServiceFactory18eraseCapableToEnumEt
libixpdimm-cim.so.1:_ZN4wbem11pmem_config30PersistentMemoryServiceFactory19getBlockSizeInBytesERKNSt7__cxx1112basic_stringIcSt11char_traitsIcESaIcEEE
libixpdimm-cim.so.1:_ZN4wbem11pmem_config30PersistentMemoryServiceFactory19getNamespaceDetailsENSt7__cxx1112basic_stringIcSt11char_traitsIcESaIcEEER17namespace_details
libixpdimm-cim.so.1:_ZN4wbem11pmem_config30PersistentMemoryServiceFactory19modifyNamespaceNameENSt7__cxx1112basic_stringIcSt11char_traitsIcESaIcEEES7_
libixpdimm-cim.so.1:_ZN4wbem11pmem_config30PersistentMemoryServiceFactory19namespaceTypeToEnumEj
libixpdimm-cim.so.1:_ZN4wbem11pmem_config30PersistentMemoryServiceFactory20encryptionTypeToEnumEt
libixpdimm-cim.so.1:_ZN4wbem11pmem_config30PersistentMemoryServiceFactory20getNamespaceFromPathERKNS_9framework10ObjectPathERKNSt7__cxx1112basic_stringIcSt11char_traitsIcESaIcEEERSB_
libixpdimm-cim.so.1:_ZN4wbem11pmem_config30PersistentMemoryServiceFactory21populateAttributeListERSt6vectorINSt7__cxx1112basic_stringIcSt11char_traitsIcESaIcEEESaIS8_EE
libixpdimm-cim.so.1:_ZN4wbem11pmem_config30PersistentMemoryServiceFactory22namespaceEnabledToEnumEj
libixpdimm-cim.so.1:_ZN4wbem11pmem_config30PersistentMemoryServiceFactory24populateInterleaveFormatEbRKNS_10mem_config46MemoryAllocationSettingsInterleaveSizeExponentES5_R17interleave_format
libixpdimm-cim.so.1:_ZN4wbem11pmem_config30PersistentMemoryServiceFactory25get_settings_by_pmem_typeEtRNS_10mem_config46MemoryAllocationSettingsInterleaveSizeExponentES4_Rb
libixpdimm-cim.so.1:_ZN4wbem11pmem_config30PersistentMemoryServiceFactory25modifyNamespaceBlockCountENSt7__cxx1112basic_stringIcSt11char_traitsIcESaIcEEEy
libixpdimm-cim.so.1:_ZN4wbem11pmem_config30PersistentMemoryServiceFactory25performAtomicModificationENSt7__cxx1112basic_stringIcSt11char_traitsIcESaIcEEEyS7_
libixpdimm-cim.so.1:_ZN4wbem11pmem_config30PersistentMemoryServiceFactory28getBlockCountFromReservationERK17namespace_detailsy
libixpdimm-cim.so.1:_ZN4wbem11pmem_config30PersistentMemoryServiceFactory29generateNamespaceRefAttributeENSt7__cxx1112basic_stringIcSt11char_traitsIcESaIcEEERNS_9framework9AttributeE
libixpdimm-cim.so.1:_ZN4wbem11pmem_config30PersistentMemoryServiceFactory29getReturnCodeFromLibExceptionERKNS_9exception20NvmExceptionLibErrorE
libixpdimm-cim.so.1:_ZN4wbem11pmem_config30PersistentMemoryServiceFactory30isModifyNamespaceNameSupportedEv
libixpdimm-cim.so.1:_ZN4wbem11pmem_config30PersistentMemoryServiceFactory30memoryPageAllocationTypeToEnumEt
libixpdimm-cim.so.1:_ZN4wbem11pmem_config30PersistentMemoryServiceFactory36getAdjustedCreateNamespaceBlockCountERKNS1_21createNamespaceParamsE
libixpdimm-cim.so.1:_ZN4wbem11pmem_config30PersistentMemoryServiceFactory36getAdjustedModifyNamespaceBlockCountENSt7__cxx1112basic_stringIcSt11char_traitsIcESaIcEEEy
libixpdimm-cim.so.1:_ZN4wbem11pmem_config30PersistentMemoryServiceFactory36get_recommended_interleave_size_expsERNS_10mem_config46MemoryAllocationSettingsInterleaveSizeExponentES4_
libixpdimm-cim.so.1:_ZN4wbem11pmem_config30PersistentMemoryServiceFactory36isModifyNamespaceBlockCountSupportedERK17namespace_detailsy
libixpdimm-cim.so.1:_ZN4wbem11pmem_config30PersistentMemoryServiceFactoryC1ERN4core10NvmLibraryE
libixpdimm-cim.so.1:_ZN4wbem11pmem_config30PersistentMemoryServiceFactoryC2ERN4core10NvmLibraryE
libixpdimm-cim.so.1:_ZN4wbem11pmem_config30PersistentMemoryServiceFactoryD0Ev
libixpdimm-cim.so.1:_ZN4wbem11pmem_config30PersistentMemoryServiceFactoryD1Ev
libixpdimm-cim.so.1:_ZN4wbem11pmem_config30PersistentMemoryServiceFactoryD2Ev
libixpdimm-cim.so.1:_ZN4wbem11pmem_config32PersistentMemoryNamespaceFactory11getInstanceERNS_9framework10ObjectPathERSt6vectorINSt7__cxx1112basic_stringIcSt11char_traitsIcESaIcEEESaISB_EE
libixpdimm-cim.so.1:_ZN4wbem11pmem_config32PersistentMemoryNamespaceFactory12isAssociatedERKNSt7__cxx1112basic_stringIcSt11char_traitsIcESaIcEEEPNS_9framework8InstanceESC_
libixpdimm-cim.so.1:_ZN4wbem11pmem_config32PersistentMemoryNamespaceFactory13executeMethodERjNSt7__cxx1112basic_stringIcSt11char_traitsIcESaIcEEERNS_9framework10ObjectPathERSt3mapIS8_NS9_9AttributeESt4lessIS8_ESaISt4pairIKS8_SD_EEESL_
libixpdimm-cim.so.1:_ZN4wbem11pmem_config32PersistentMemoryNamespaceFactory15modifyNamespaceENSt7__cxx1112basic_stringIcSt11char_traitsIcESaIcEEEt
libixpdimm-cim.so.1:_ZN4wbem11pmem_config32PersistentMemoryNamespaceFactory16getInstanceNamesEv
libixpdimm-cim.so.1:_ZN4wbem11pmem_config32PersistentMemoryNamespaceFactory17createPathFromUidEPKcRNS_9framework10ObjectPathE
libixpdimm-cim.so.1:_ZN4wbem11pmem_config32PersistentMemoryNamespaceFactory17createPathFromUidERKNSt7__cxx1112basic_stringIcSt11char_traitsIcESaIcEEERNS_9framework10ObjectPathE
libixpdimm-cim.so.1:_ZN4wbem11pmem_config32PersistentMemoryNamespaceFactory21populateAttributeListERSt6vectorINSt7__cxx1112basic_stringIcSt11char_traitsIcESaIcEEESaIS8_EE
libixpdimm-cim.so.1:_ZN4wbem11pmem_config32PersistentMemoryNamespaceFactory24getOperationalStatusAttrERK17namespace_details
libixpdimm-cim.so.1:_ZN4wbem11pmem_config32PersistentMemoryNamespaceFactory28namespaceDetailsFromInstanceEPNS_9framework8InstanceEP17namespace_details
libixpdimm-cim.so.1:_ZN4wbem11pmem_config32PersistentMemoryNamespaceFactory29getReturnCodeFromLibExceptionENS_9exception20NvmExceptionLibErrorE
libixpdimm-cim.so.1:_ZN4wbem11pmem_config32PersistentMemoryNamespaceFactory33isModifyNamespaceEnabledSupportedE22namespace_enable_state
libixpdimm-cim.so.1:_ZN4wbem11pmem_config32PersistentMemoryNamespaceFactoryC1ERN4core10NvmLibraryE
libixpdimm-cim.so.1:_ZN4wbem11pmem_config32PersistentMemoryNamespaceFactoryC2ERN4core10NvmLibraryE
libixpdimm-cim.so.1:_ZN4wbem11pmem_config32PersistentMemoryNamespaceFactoryD0Ev
libixpdimm-cim.so.1:_ZN4wbem11pmem_config32PersistentMemoryNamespaceFactoryD1Ev
libixpdimm-cim.so.1:_ZN4wbem11pmem_config32PersistentMemoryNamespaceFactoryD2Ev
libixpdimm-cim.so.1:_ZN4wbem11pmem_config35PersistentMemoryCapabilitiesFactory11getInstanceERNS_9framework10ObjectPathERSt6vectorINSt7__cxx1112basic_stringIcSt11char_traitsIcESaIcEEESaISB_EE
libixpdimm-cim.so.1:_ZN4wbem11pmem_config35PersistentMemoryCapabilitiesFactory16getInstanceNamesEv
libixpdimm-cim.so.1:_ZN4wbem11pmem_config35PersistentMemoryCapabilitiesFactory18getNvmCapabilitiesEv
libixpdimm-cim.so.1:_ZN4wbem11pmem_config35PersistentMemoryCapabilitiesFactory21populateAttributeListERSt6vectorINSt7__cxx1112basic_stringIcSt11char_traitsIcESaIcEEESaIS8_EE
libixpdimm-cim.so.1:_ZN4wbem11pmem_config35PersistentMemoryCapabilitiesFactory23getMaxNamespacesPerPoolEP4pooly
libixpdimm-cim.so.1:_ZN4wbem11pmem_config35PersistentMemoryCapabilitiesFactory23getPoolSecurityFeaturesEP4pool
libixpdimm-cim.so.1:_ZN4wbem11pmem_config35PersistentMemoryCapabilitiesFactory29getReturnCodeFromLibExceptionENS_9exception20NvmExceptionLibErrorE
libixpdimm-cim.so.1:_ZN4wbem11pmem_config35PersistentMemoryCapabilitiesFactory33getMemoryPageAllocationCapabilityEv
libixpdimm-cim.so.1:_ZN4wbem11pmem_config35PersistentMemoryCapabilitiesFactory7getPoolERNS_9framework10ObjectPathE
libixpdimm-cim.so.1:_ZN4wbem11pmem_config35PersistentMemoryCapabilitiesFactoryC1Ev
libixpdimm-cim.so.1:_ZN4wbem11pmem_config35PersistentMemoryCapabilitiesFactoryC2Ev
libixpdimm-cim.so.1:_ZN4wbem11pmem_config35PersistentMemoryCapabilitiesFactoryD0Ev
libixpdimm-cim.so.1:_ZN4wbem11pmem_config35PersistentMemoryCapabilitiesFactoryD1Ev
libixpdimm-cim.so.1:_ZN4wbem11pmem_config35PersistentMemoryCapabilitiesFactoryD2Ev
libixpdimm-cim.so.1:_ZN4wbem11pmem_config42PersistentConfigurationCapabilitiesFactory11getInstanceERNS_9framework10ObjectPathERSt6vectorINSt7__cxx1112basic_stringIcSt11char_traitsIcESaIcEEESaISB_EE
libixpdimm-cim.so.1:_ZN4wbem11pmem_config42PersistentConfigurationCapabilitiesFactory16getInstanceNamesEv
libixpdimm-cim.so.1:_ZN4wbem11pmem_config42PersistentConfigurationCapabilitiesFactory21populateAttributeListERSt6vectorINSt7__cxx1112basic_stringIcSt11char_traitsIcESaIcEEESaIS8_EE
libixpdimm-cim.so.1:_ZN4wbem11pmem_config42PersistentConfigurationCapabilitiesFactoryC1Ev
libixpdimm-cim.so.1:_ZN4wbem11pmem_config42PersistentConfigurationCapabilitiesFactoryC2Ev
libixpdimm-cim.so.1:_ZN4wbem11pmem_config42PersistentConfigurationCapabilitiesFactoryD0Ev
libixpdimm-cim.so.1:_ZN4wbem11pmem_config42PersistentConfigurationCapabilitiesFactoryD1Ev
libixpdimm-cim.so.1:_ZN4wbem11pmem_config42PersistentConfigurationCapabilitiesFactoryD2Ev
libixpdimm-cim.so.1:_ZN4wbem13lib_interface12apiMutexInitEv
libixpdimm-cim.so.1:_ZN4wbem13lib_interface14apiMutexDeleteEv
libixpdimm-cim.so.1:_ZN4wbem13lib_interface6NvmApi10dumpConfigEPKcS3_mh
libixpdimm-cim.so.1:_ZN4wbem13lib_interface6NvmApi10getSensorsEPKcP6sensort
libixpdimm-cim.so.1:_ZN4wbem13lib_interface6NvmApi10getSocketsEP6sockett
libixpdimm-cim.so.1:_ZN4wbem13lib_interface6NvmApi10loadConfigEPKcS3_m
libixpdimm-cim.so.1:_ZN4wbem13lib_interface6NvmApi11eraseDeviceEPKcS3_m
libixpdimm-cim.so.1:_ZN4wbem13lib_interface6NvmApi11getJobCountEv
libixpdimm-cim.so.1:_ZN4wbem13lib_interface6NvmApi11purgeEventsEPK12event_filter
libixpdimm-cim.so.1:_ZN4wbem13lib_interface6NvmApi12addSimulatorEPKcm
libixpdimm-cim.so.1:_ZN4wbem13lib_interface6NvmApi12getDebugLogsEP7nvm_logj
libixpdimm-cim.so.1:_ZN4wbem13lib_interface6NvmApi12getPoolCountEv
libixpdimm-cim.so.1:_ZN4wbem13lib_interface6NvmApi12unlockDeviceEPKcS3_m
libixpdimm-cim.so.1:_ZN4wbem13lib_interface6NvmApi13gatherSupportEPKcm
libixpdimm-cim.so.1:_ZN4wbem13lib_interface6NvmApi13getConfigGoalEPKcP11config_goal
libixpdimm-cim.so.1:_ZN4wbem13lib_interface6NvmApi13getEventCountEPK12event_filter
libixpdimm-cim.so.1:_ZN4wbem13lib_interface6NvmApi13getFwLogLevelEPKcP12fw_log_level
libixpdimm-cim.so.1:_ZN4wbem13lib_interface6NvmApi13getNamespacesEP19namespace_discoveryh
libixpdimm-cim.so.1:_ZN4wbem13lib_interface6NvmApi13purgeDebugLogEv
libixpdimm-cim.so.1:_ZN4wbem13lib_interface6NvmApi13runDiagnosticEPKcPK10diagnosticPj
libixpdimm-cim.so.1:_ZN4wbem13lib_interface6NvmApi13setFwLogLevelEPKc12fw_log_level
libixpdimm-cim.so.1:_ZN4wbem13lib_interface6NvmApi13setPassphraseEPKcS3_mS3_m
libixpdimm-cim.so.1:_ZN4wbem13lib_interface6NvmApi14addEventNotifyE10event_typePFvP5eventE
libixpdimm-cim.so.1:_ZN4wbem13lib_interface6NvmApi14getSocketCountEv
libixpdimm-cim.so.1:_ZN4wbem13lib_interface6NvmApi14getSwInventoryEP12sw_inventory
libixpdimm-cim.so.1:_ZN4wbem13lib_interface6NvmApi14purgeStateDataEv
libixpdimm-cim.so.1:_ZN4wbem13lib_interface6NvmApi14stringToNvmUidERKNSt7__cxx1112basic_stringIcSt11char_traitsIcESaIcEEEPc
libixpdimm-cim.so.1:_ZN4wbem13lib_interface6NvmApi14updateDeviceFwEPKcS3_mh
libixpdimm-cim.so.1:_ZN4wbem13lib_interface6NvmApi15createNamespaceEPA37_cPKcP25namespace_create_settingsPK17interleave_formath
libixpdimm-cim.so.1:_ZN4wbem13lib_interface6NvmApi15deleteNamespaceEPKc
libixpdimm-cim.so.1:_ZN4wbem13lib_interface6NvmApi15examineDeviceFwEPKcS3_mPcm
libixpdimm-cim.so.1:_ZN4wbem13lib_interface6NvmApi15getDeviceStatusEPKcP13device_status
libixpdimm-cim.so.1:_ZN4wbem13lib_interface6NvmApi15removeSimulatorEv
libixpdimm-cim.so.1:_ZN4wbem13lib_interface6NvmApi16acknowledgeEventEj
libixpdimm-cim.so.1:_ZN4wbem13lib_interface6NvmApi16createConfigGoalEPKcP11config_goal
libixpdimm-cim.so.1:_ZN4wbem13lib_interface6NvmApi16deleteConfigGoalEPKc
libixpdimm-cim.so.1:_ZN4wbem13lib_interface6NvmApi16freezeLockDeviceEPKc
libixpdimm-cim.so.1:_ZN4wbem13lib_interface6NvmApi16getDebugLogCountEv
libixpdimm-cim.so.1:_ZN4wbem13lib_interface6NvmApi16getDeviceDetailsEPKcP14device_details
libixpdimm-cim.so.1:_ZN4wbem13lib_interface6NvmApi16getNvmCapacitiesEP17device_capacities
libixpdimm-cim.so.1:_ZN4wbem13lib_interface6NvmApi16removePassphraseEPKcS3_m
libixpdimm-cim.so.1:_ZN4wbem13lib_interface6NvmApi17getDeviceSettingsEPKcP15device_settings
libixpdimm-cim.so.1:_ZN4wbem13lib_interface6NvmApi17getMemoryTopologyEP15memory_topologyh
libixpdimm-cim.so.1:_ZN4wbem13lib_interface6NvmApi17getNamespaceCountEv
libixpdimm-cim.so.1:_ZN4wbem13lib_interface6NvmApi17injectDeviceErrorEPKcPK12device_error
libixpdimm-cim.so.1:_ZN4wbem13lib_interface6NvmApi17removeEventNotifyEi
libixpdimm-cim.so.1:_ZN4wbem13lib_interface6NvmApi17setSensorSettingsEPKc11sensor_typePK15sensor_settings
libixpdimm-cim.so.1:_ZN4wbem13lib_interface6NvmApi17setUserPreferenceEPKcS3_
libixpdimm-cim.so.1:_ZN4wbem13lib_interface6NvmApi18getDeviceDiscoveryEPcP16device_discovery
libixpdimm-cim.so.1:_ZN4wbem13lib_interface6NvmApi18getNvmCapabilitiesEP16nvm_capabilities
libixpdimm-cim.so.1:_ZN4wbem13lib_interface6NvmApi18toggleDebugLoggingEh
libixpdimm-cim.so.1:_ZN4wbem13lib_interface6NvmApi19debugLoggingEnabledEv
libixpdimm-cim.so.1:_ZN4wbem13lib_interface6NvmApi19getNamespaceDetailsEPKcP17namespace_details
libixpdimm-cim.so.1:_ZN4wbem13lib_interface6NvmApi19modifyNamespaceNameEPKcS3_
libixpdimm-cim.so.1:_ZN4wbem13lib_interface6NvmApi20getDeviceFwImageInfoEPKcP14device_fw_info
libixpdimm-cim.so.1:_ZN4wbem13lib_interface6NvmApi20getDevicePerformanceEPKcP18device_performance
libixpdimm-cim.so.1:_ZN4wbem13lib_interface6NvmApi20modifyDeviceSettingsEPKcPK15device_settings
libixpdimm-cim.so.1:_ZN4wbem13lib_interface6NvmApi22getMemoryTopologyCountEv
libixpdimm-cim.so.1:_ZN4wbem13lib_interface6NvmApi22modifyNamespaceEnabledEPKc22namespace_enable_state
libixpdimm-cim.so.1:_ZN4wbem13lib_interface6NvmApi23getDeviceNamespaceCountEPKc14namespace_type
libixpdimm-cim.so.1:_ZN4wbem13lib_interface6NvmApi24clearInjectedDeviceErrorEPKcPK12device_error
libixpdimm-cim.so.1:_ZN4wbem13lib_interface6NvmApi25modifyNamespaceBlockCountEPKcyh
libixpdimm-cim.so.1:_ZN4wbem13lib_interface6NvmApi31adjustCreateNamespaceBlockCountEPKcP25namespace_create_settingsPK17interleave_format
libixpdimm-cim.so.1:_ZN4wbem13lib_interface6NvmApi31adjustModifyNamespaceBlockCountEPKcPy
libixpdimm-cim.so.1:_ZN4wbem13lib_interface6NvmApi31getAvailablePersistentSizeRangeEPKcP25possible_namespace_rangesh
libixpdimm-cim.so.1:_ZN4wbem13lib_interface6NvmApi6getApiEv
libixpdimm-cim.so.1:_ZN4wbem13lib_interface6NvmApi7getHostEP4host
libixpdimm-cim.so.1:_ZN4wbem13lib_interface6NvmApi7getJobsEP3jobj
libixpdimm-cim.so.1:_ZN4wbem13lib_interface6NvmApi7getPoolEPcP4pool
libixpdimm-cim.so.1:_ZN4wbem13lib_interface6NvmApi8getPoolsEP4poolh
libixpdimm-cim.so.1:_ZN4wbem13lib_interface6NvmApi9getEventsEPK12event_filterP5eventt
libixpdimm-cim.so.1:_ZN4wbem13lib_interface6NvmApi9getSensorEPKc11sensor_typeP6sensor
libixpdimm-cim.so.1:_ZN4wbem13lib_interface6NvmApi9getSocketEtP6socket
libixpdimm-cim.so.1:_ZN4wbem13lib_interface6NvmApi9saveStateEPKcm
libixpdimm-cim.so.1:_ZN4wbem13lib_interface6NvmApiC1Ev
libixpdimm-cim.so.1:_ZN4wbem13lib_interface6NvmApiC2Ev
libixpdimm-cim.so.1:_ZN4wbem13lib_interface6NvmApiD0Ev
libixpdimm-cim.so.1:_ZN4wbem13lib_interface6NvmApiD1Ev
libixpdimm-cim.so.1:_ZN4wbem13lib_interface6NvmApiD2Ev
libixpdimm-cim.so.1:_ZN4wbem14physical_asset13NVDIMMFactory10clearErrorERKNSt7__cxx1112basic_stringIcSt11char_traitsIcESaIcEEEP12device_error
libixpdimm-cim.so.1:_ZN4wbem14physical_asset13NVDIMMFactory10freezeLockENSt7__cxx1112basic_stringIcSt11char_traitsIcESaIcEEE
libixpdimm-cim.so.1:_ZN4wbem14physical_asset13NVDIMMFactory10toInstanceERN4core6device6DeviceERNS_9framework8InstanceESt6vectorINSt7__cxx1112basic_stringIcSt11char_traitsIcESaIcEEESaISF_EE
libixpdimm-cim.so.1:_ZN4wbem14physical_asset13NVDIMMFactory11getInstanceERNS_9framework10ObjectPathERSt6vectorINSt7__cxx1112basic_stringIcSt11char_traitsIcESaIcEEESaISB_EE
libixpdimm-cim.so.1:_ZN4wbem14physical_asset13NVDIMMFactory11injectErrorERKNSt7__cxx1112basic_stringIcSt11char_traitsIcESaIcEEEP12device_error
libixpdimm-cim.so.1:_ZN4wbem14physical_asset13NVDIMMFactory11uidToHandleERKNSt7__cxx1112basic_stringIcSt11char_traitsIcESaIcEEERj
libixpdimm-cim.so.1:_ZN4wbem14physical_asset13NVDIMMFactory12getInstancesERSt6vectorINSt7__cxx1112basic_stringIcSt11char_traitsIcESaIcEEESaIS8_EE
libixpdimm-cim.so.1:_ZN4wbem14physical_asset13NVDIMMFactory13executeMethodERjNSt7__cxx1112basic_stringIcSt11char_traitsIcESaIcEEERNS_9framework10ObjectPathERSt3mapIS8_NS9_9AttributeESt4lessIS8_ESaISt4pairIKS8_SD_EEESL_
libixpdimm-cim.so.1:_ZN4wbem14physical_asset13NVDIMMFactory13getAllDevicesEv
libixpdimm-cim.so.1:_ZN4wbem14physical_asset13NVDIMMFactory13setPassphraseENSt7__cxx1112basic_stringIcSt11char_traitsIcESaIcEEES7_S7_
libixpdimm-cim.so.1:_ZN4wbem14physical_asset13NVDIMMFactory14modifyInstanceERNS_9framework10ObjectPathERSt3mapINSt7__cxx1112basic_stringIcSt11char_traitsIcESaIcEEENS2_9AttributeESt4lessISB_ESaISt4pairIKSB_SC_EEE
libixpdimm-cim.so.1:_ZN4wbem14physical_asset13NVDIMMFactory14uidToDimmIdStrERKNSt7__cxx1112basic_stringIcSt11char_traitsIcESaIcEEE
libixpdimm-cim.so.1:_ZN4wbem14physical_asset13NVDIMMFactory16clearPoisonErrorERKNSt7__cxx1112basic_stringIcSt11char_traitsIcESaIcEEEy18poison_memory_type
libixpdimm-cim.so.1:_ZN4wbem14physical_asset13NVDIMMFactory16getAllDeviceUidsB5cxx11Ev
libixpdimm-cim.so.1:_ZN4wbem14physical_asset13NVDIMMFactory16getInstanceNamesEv
libixpdimm-cim.so.1:_ZN4wbem14physical_asset13NVDIMMFactory16removePassphraseENSt7__cxx1112basic_stringIcSt11char_traitsIcESaIcEEES7_
libixpdimm-cim.so.1:_ZN4wbem14physical_asset13NVDIMMFactory17createPathFromUidENSt7__cxx1112basic_stringIcSt11char_traitsIcESaIcEEERNS_9framework10ObjectPathES7_
libixpdimm-cim.so.1:_ZN4wbem14physical_asset13NVDIMMFactory17createPathFromUidEPKcRNS_9framework10ObjectPathE
libixpdimm-cim.so.1:_ZN4wbem14physical_asset13NVDIMMFactory17exportSupportFileENSt7__cxx1112basic_stringIcSt11char_traitsIcESaIcEEES7_
libixpdimm-cim.so.1:_ZN4wbem14physical_asset13NVDIMMFactory17injectPoisonErrorERKNSt7__cxx1112basic_stringIcSt11char_traitsIcESaIcEEEy18poison_memory_type
libixpdimm-cim.so.1:_ZN4wbem14physical_asset13NVDIMMFactory19getMemoryModeStringB5cxx11ERN4core6device6DeviceE
libixpdimm-cim.so.1:_ZN4wbem14physical_asset13NVDIMMFactory19getNvdimmMemoryTypeERN4core6device6DeviceE
libixpdimm-cim.so.1:_ZN4wbem14physical_asset13NVDIMMFactory20clearSoftwareTriggerERKNSt7__cxx1112basic_stringIcSt11char_traitsIcESaIcEEEt
libixpdimm-cim.so.1:_ZN4wbem14physical_asset13NVDIMMFactory20getManageableDevicesEv
libixpdimm-cim.so.1:_ZN4wbem14physical_asset13NVDIMMFactory20uidToDimmIdAttributeERKNSt7__cxx1112basic_stringIcSt11char_traitsIcESaIcEEE
libixpdimm-cim.so.1:_ZN4wbem14physical_asset13NVDIMMFactory21clearTemperatureErrorERKNSt7__cxx1112basic_stringIcSt11char_traitsIcESaIcEEE
libixpdimm-cim.so.1:_ZN4wbem14physical_asset13NVDIMMFactory21convertToLogLevelEnumEt
libixpdimm-cim.so.1:_ZN4wbem14physical_asset13NVDIMMFactory21existsAndIsManageableERKNSt7__cxx1112basic_stringIcSt11char_traitsIcESaIcEEE
libixpdimm-cim.so.1:_ZN4wbem14physical_asset13NVDIMMFactory21injectSoftwareTriggerERKNSt7__cxx1112basic_stringIcSt11char_traitsIcESaIcEEEt
libixpdimm-cim.so.1:_ZN4wbem14physical_asset13NVDIMMFactory21populateAttributeListERSt6vectorINSt7__cxx1112basic_stringIcSt11char_traitsIcESaIcEEESaIS8_EE
libixpdimm-cim.so.1:_ZN4wbem14physical_asset13NVDIMMFactory22deviceStatusToOpStatusERN4core6device6DeviceE
libixpdimm-cim.so.1:_ZN4wbem14physical_asset13NVDIMMFactory22injectTemperatureErrorERKNSt7__cxx1112basic_stringIcSt11char_traitsIcESaIcEEEf
libixpdimm-cim.so.1:_ZN4wbem14physical_asset13NVDIMMFactory23getManageableDeviceUidsB5cxx11Ev
libixpdimm-cim.so.1:_ZN4wbem14physical_asset13NVDIMMFactory25clearSpareCapacityTriggerERKNSt7__cxx1112basic_stringIcSt11char_traitsIcESaIcEEEt
libixpdimm-cim.so.1:_ZN4wbem14physical_asset13NVDIMMFactory26injectSpareCapacityTriggerERKNSt7__cxx1112basic_stringIcSt11char_traitsIcESaIcEEEt
libixpdimm-cim.so.1:_ZN4wbem14physical_asset13NVDIMMFactory28getHexFormatFromDeviceHandleB5cxx11Ej
libixpdimm-cim.so.1:_ZN4wbem14physical_asset13NVDIMMFactory29getReturnCodeFromLibExceptionERKNS_9exception20NvmExceptionLibErrorE
libixpdimm-cim.so.1:_ZN4wbem14physical_asset13NVDIMMFactory30getUpdatedAttributeForInstanceEPNS_9framework8InstanceERKNSt7__cxx1112basic_stringIcSt11char_traitsIcESaIcEEERKSt3mapISA_NS2_9AttributeESt4lessISA_ESaISt4pairISB_SE_EEE
libixpdimm-cim.so.1:_ZN4wbem14physical_asset13NVDIMMFactory31updateDeviceSettingsForInstanceEPNS_9framework8InstanceERKSt3mapINSt7__cxx1112basic_stringIcSt11char_traitsIcESaIcEEENS2_9AttributeESt4lessISB_ESaISt4pairIKSB_SC_EEE
libixpdimm-cim.so.1:_ZN4wbem14physical_asset13NVDIMMFactory6unlockENSt7__cxx1112basic_stringIcSt11char_traitsIcESaIcEEES7_
libixpdimm-cim.so.1:_ZN4wbem14physical_asset13NVDIMMFactory8clearLSAENSt7__cxx1112basic_stringIcSt11char_traitsIcESaIcEEE
libixpdimm-cim.so.1:_ZN4wbem14physical_asset13NVDIMMFactoryC1ERN4core6device13DeviceServiceERNS2_6system13SystemServiceE
libixpdimm-cim.so.1:_ZN4wbem14physical_asset13NVDIMMFactoryC2ERN4core6device13DeviceServiceERNS2_6system13SystemServiceE
libixpdimm-cim.so.1:_ZN4wbem14physical_asset13NVDIMMFactoryD0Ev
libixpdimm-cim.so.1:_ZN4wbem14physical_asset13NVDIMMFactoryD1Ev
libixpdimm-cim.so.1:_ZN4wbem14physical_asset13NVDIMMFactoryD2Ev
libixpdimm-cim.so.1:_ZN4wbem14physical_asset25MemoryTopologyViewFactory11getInstanceERNS_9framework10ObjectPathERSt6vectorINSt7__cxx1112basic_stringIcSt11char_traitsIcESaIcEEESaISB_EE
libixpdimm-cim.so.1:_ZN4wbem14physical_asset25MemoryTopologyViewFactory16getInstanceNamesEv
libixpdimm-cim.so.1:_ZN4wbem14physical_asset25MemoryTopologyViewFactory18getPhysicalIdValueERNS_9framework9AttributeE
libixpdimm-cim.so.1:_ZN4wbem14physical_asset25MemoryTopologyViewFactory18memoryTypeToStringB5cxx11E11memory_type
libixpdimm-cim.so.1:_ZN4wbem14physical_asset25MemoryTopologyViewFactory21populateAttributeListERSt6vectorINSt7__cxx1112basic_stringIcSt11char_traitsIcESaIcEEESaIS8_EE
libixpdimm-cim.so.1:_ZN4wbem14physical_asset25MemoryTopologyViewFactory21populateInstanceNamesERSt6vectorINS_9framework10ObjectPathESaIS4_EE
libixpdimm-cim.so.1:_ZN4wbem14physical_asset25MemoryTopologyViewFactory30getMemoryTopologyForPhysicalIdEtR15memory_topology
libixpdimm-cim.so.1:_ZN4wbem14physical_asset25MemoryTopologyViewFactory31getDeviceDiscoveryForPhysicalIdEtR16device_discovery
libixpdimm-cim.so.1:_ZN4wbem14physical_asset25MemoryTopologyViewFactory33populateNvmDimmInstanceAttributesERNS_9framework8InstanceERSt6vectorINSt7__cxx1112basic_stringIcSt11char_traitsIcESaIcEEESaISB_EERK15memory_topology
libixpdimm-cim.so.1:_ZN4wbem14physical_asset25MemoryTopologyViewFactory34populateDramDimmInstanceAttributesERNS_9framework8InstanceERSt6vectorINSt7__cxx1112basic_stringIcSt11char_traitsIcESaIcEEESaISB_EERK15memory_topology
libixpdimm-cim.so.1:_ZN4wbem14physical_asset25MemoryTopologyViewFactory34populateInstanceFromMemoryTopologyERNS_9framework8InstanceERSt6vectorINSt7__cxx1112basic_stringIcSt11char_traitsIcESaIcEEESaISB_EERK15memory_topology
libixpdimm-cim.so.1:_ZN4wbem14physical_asset25MemoryTopologyViewFactoryC1Ev
libixpdimm-cim.so.1:_ZN4wbem14physical_asset25MemoryTopologyViewFactoryC2Ev
libixpdimm-cim.so.1:_ZN4wbem14physical_asset25MemoryTopologyViewFactoryD0Ev
libixpdimm-cim.so.1:_ZN4wbem14physical_asset25MemoryTopologyViewFactoryD1Ev
libixpdimm-cim.so.1:_ZN4wbem14physical_asset25MemoryTopologyViewFactoryD2Ev
libixpdimm-cim.so.1:_ZN4wbem19framework_interface18NvmInstanceFactory11getHostNameB5cxx11Ev
libixpdimm-cim.so.1:_ZN4wbem19framework_interface18NvmInstanceFactory18getInstanceFactoryENSt7__cxx1112basic_stringIcSt11char_traitsIcESaIcEEE
libixpdimm-cim.so.1:_ZN4wbem19framework_interface18NvmInstanceFactoryC1ERN4core6system13SystemServiceE
libixpdimm-cim.so.1:_ZN4wbem19framework_interface18NvmInstanceFactoryC2ERN4core6system13SystemServiceE
libixpdimm-cim.so.1:_ZN4wbem19framework_interface18NvmProviderFactory15CleanUpProviderEv
libixpdimm-cim.so.1:_ZN4wbem19framework_interface18NvmProviderFactory18InitializeProviderEv
libixpdimm-cim.so.1:_ZN4wbem19framework_interface18NvmProviderFactory18getInstanceFactoryERKNSt7__cxx1112basic_stringIcSt11char_traitsIcESaIcEEE
libixpdimm-cim.so.1:_ZN4wbem19framework_interface18NvmProviderFactory20getIndicationServiceEv
libixpdimm-cim.so.1:_ZN4wbem19framework_interface18NvmProviderFactory23getAssociationFactoriesEPNS_9framework8InstanceERKNSt7__cxx1112basic_stringIcSt11char_traitsIcESaIcEEESC_SC_SC_
libixpdimm-cim.so.1:_ZN4wbem19framework_interface18NvmProviderFactoryC1Ev
libixpdimm-cim.so.1:_ZN4wbem19framework_interface18NvmProviderFactoryC2Ev
libixpdimm-cim.so.1:_ZN4wbem19framework_interface20NvmIndicationService12getSingletonEv
libixpdimm-cim.so.1:_ZN4wbem19framework_interface20NvmIndicationService14stopIndicatingEv
libixpdimm-cim.so.1:_ZN4wbem19framework_interface20NvmIndicationService15startIndicatingEPNS_9framework12CimomAdapterE
libixpdimm-cim.so.1:_ZN4wbem19framework_interface20NvmIndicationServiceC1Ev
libixpdimm-cim.so.1:_ZN4wbem19framework_interface20NvmIndicationServiceC2Ev
libixpdimm-cim.so.1:_ZN4wbem19framework_interface20NvmIndicationServiceD0Ev
libixpdimm-cim.so.1:_ZN4wbem19framework_interface20NvmIndicationServiceD1Ev
libixpdimm-cim.so.1:_ZN4wbem19framework_interface20NvmIndicationServiceD2Ev
libixpdimm-cim.so.1:_ZN4wbem19framework_interface21NvmAssociationFactory12initClassMapEv
libixpdimm-cim.so.1:_ZN4wbem19framework_interface21NvmAssociationFactory20initAssociationTableEv
libixpdimm-cim.so.1:_ZN4wbem19framework_interface21NvmAssociationFactoryC1EPNS_9framework8InstanceERKNSt7__cxx1112basic_stringIcSt11char_traitsIcESaIcEEESC_SC_SC_
libixpdimm-cim.so.1:_ZN4wbem19framework_interface21NvmAssociationFactoryC2EPNS_9framework8InstanceERKNSt7__cxx1112basic_stringIcSt11char_traitsIcESaIcEEESC_SC_SC_
libixpdimm-cim.so.1:_ZN4wbem19framework_interface8callbackEP5event
libixpdimm-cim.so.1:_ZN4wbem19getCurrentAttributeERKNSt7__cxx1112basic_stringIcSt11char_traitsIcESaIcEEEPKNS_9framework8InstanceERNS8_9AttributeE
libixpdimm-cim.so.1:_ZN4wbem25getNewModifiableAttributeERKNSt7__cxx1112basic_stringIcSt11char_traitsIcESaIcEEERKSt3mapIS5_NS_9framework9AttributeESt4lessIS5_ESaISt4pairIS6_SA_EEERSA_
libixpdimm-cim.so.1:_ZN4wbem28checkAttributesAreModifiableEPNS_9framework8InstanceERSt3mapINSt7__cxx1112basic_stringIcSt11char_traitsIcESaIcEEENS0_9AttributeESt4lessIS9_ESaISt4pairIKS9_SA_EEESt6vectorIS9_SaIS9_EE
libixpdimm-cim.so.1:_ZN4wbem6memory16RawMemoryFactory11getInstanceERNS_9framework10ObjectPathERSt6vectorINSt7__cxx1112basic_stringIcSt11char_traitsIcESaIcEEESaISB_EE
libixpdimm-cim.so.1:_ZN4wbem6memory16RawMemoryFactory16getInstanceNamesEv
libixpdimm-cim.so.1:_ZN4wbem6memory16RawMemoryFactory21populateAttributeListERSt6vectorINSt7__cxx1112basic_stringIcSt11char_traitsIcESaIcEEESaIS8_EE
libixpdimm-cim.so.1:_ZN4wbem6memory16RawMemoryFactoryC1Ev
libixpdimm-cim.so.1:_ZN4wbem6memory16RawMemoryFactoryC2Ev
libixpdimm-cim.so.1:_ZN4wbem6memory16RawMemoryFactoryD0Ev
libixpdimm-cim.so.1:_ZN4wbem6memory16RawMemoryFactoryD1Ev
libixpdimm-cim.so.1:_ZN4wbem6memory16RawMemoryFactoryD2Ev
libixpdimm-cim.so.1:_ZN4wbem6memory21VolatileMemoryFactory11getInstanceERNS_9framework10ObjectPathERSt6vectorINSt7__cxx1112basic_stringIcSt11char_traitsIcESaIcEEESaISB_EE
libixpdimm-cim.so.1:_ZN4wbem6memory21VolatileMemoryFactory12isAssociatedERKNSt7__cxx1112basic_stringIcSt11char_traitsIcESaIcEEEPNS_9framework8InstanceESC_
libixpdimm-cim.so.1:_ZN4wbem6memory21VolatileMemoryFactory14getHealthStateEv
libixpdimm-cim.so.1:_ZN4wbem6memory21VolatileMemoryFactory16getInstanceNamesEv
libixpdimm-cim.so.1:_ZN4wbem6memory21VolatileMemoryFactory17getMemoryCapacityEv
libixpdimm-cim.so.1:_ZN4wbem6memory21VolatileMemoryFactory18validateObjectPathERNS_9framework10ObjectPathE
libixpdimm-cim.so.1:_ZN4wbem6memory21VolatileMemoryFactory20getOperationalStatusEt
libixpdimm-cim.so.1:_ZN4wbem6memory21VolatileMemoryFactory21getDimmMemoryCapacityENSt7__cxx1112basic_stringIcSt11char_traitsIcESaIcEEE
libixpdimm-cim.so.1:_ZN4wbem6memory21VolatileMemoryFactory21populateAttributeListERSt6vectorINSt7__cxx1112basic_stringIcSt11char_traitsIcESaIcEEESaIS8_EE
libixpdimm-cim.so.1:_ZN4wbem6memory21VolatileMemoryFactory30updateHealthStateIncrementallyERtt
libixpdimm-cim.so.1:_ZN4wbem6memory21VolatileMemoryFactoryC1Ev
libixpdimm-cim.so.1:_ZN4wbem6memory21VolatileMemoryFactoryC2Ev
libixpdimm-cim.so.1:_ZN4wbem6memory21VolatileMemoryFactoryD0Ev
libixpdimm-cim.so.1:_ZN4wbem6memory21VolatileMemoryFactoryD1Ev
libixpdimm-cim.so.1:_ZN4wbem6memory21VolatileMemoryFactoryD2Ev
libixpdimm-cim.so.1:_ZN4wbem6memory22SystemProcessorFactory11getDeviceIdB5cxx11Et
libixpdimm-cim.so.1:_ZN4wbem6memory22SystemProcessorFactory11getInstanceERNS_9framework10ObjectPathERSt6vectorINSt7__cxx1112basic_stringIcSt11char_traitsIcESaIcEEESaISB_EE
libixpdimm-cim.so.1:_ZN4wbem6memory22SystemProcessorFactory11getSocketIdENSt7__cxx1112basic_stringIcSt11char_traitsIcESaIcEEE
libixpdimm-cim.so.1:_ZN4wbem6memory22SystemProcessorFactory16getInstanceNamesEv
libixpdimm-cim.so.1:_ZN4wbem6memory22SystemProcessorFactory21populateAttributeListERSt6vectorINSt7__cxx1112basic_stringIcSt11char_traitsIcESaIcEEESaIS8_EE
libixpdimm-cim.so.1:_ZN4wbem6memory22SystemProcessorFactoryC1Ev
libixpdimm-cim.so.1:_ZN4wbem6memory22SystemProcessorFactoryC2Ev
libixpdimm-cim.so.1:_ZN4wbem6memory22SystemProcessorFactoryD0Ev
libixpdimm-cim.so.1:_ZN4wbem6memory22SystemProcessorFactoryD1Ev
libixpdimm-cim.so.1:_ZN4wbem6memory22SystemProcessorFactoryD2Ev
libixpdimm-cim.so.1:_ZN4wbem6memory23MemoryControllerFactory11getInstanceERNS_9framework10ObjectPathERSt6vectorINSt7__cxx1112basic_stringIcSt11char_traitsIcESaIcEEESaISB_EE
libixpdimm-cim.so.1:_ZN4wbem6memory23MemoryControllerFactory12getInstancesERSt6vectorINSt7__cxx1112basic_stringIcSt11char_traitsIcESaIcEEESaIS8_EE
libixpdimm-cim.so.1:_ZN4wbem6memory23MemoryControllerFactory12isAssociatedERKNSt7__cxx1112basic_stringIcSt11char_traitsIcESaIcEEEPNS_9framework8InstanceESC_
libixpdimm-cim.so.1:_ZN4wbem6memory23MemoryControllerFactory16getInstanceNamesEv
libixpdimm-cim.so.1:_ZN4wbem6memory23MemoryControllerFactory21getInstanceObjectPathERNSt7__cxx1112basic_stringIcSt11char_traitsIcESaIcEEES8_
libixpdimm-cim.so.1:_ZN4wbem6memory23MemoryControllerFactory21populateAttributeListERSt6vectorINSt7__cxx1112basic_stringIcSt11char_traitsIcESaIcEEESaIS8_EE
libixpdimm-cim.so.1:_ZN4wbem6memory23MemoryControllerFactory22getInstancesHelperLoopEPSt6vectorINS_9framework10ObjectPathESaIS4_EEPS2_INS3_8InstanceESaIS8_EEPS2_INSt7__cxx1112basic_stringIcSt11char_traitsIcESaIcEEESaISH_EE
libixpdimm-cim.so.1:_ZN4wbem6memory23MemoryControllerFactory29addNonKeyAttributesToInstanceEPNS_9framework8InstanceEPSt6vectorINSt7__cxx1112basic_stringIcSt11char_traitsIcESaIcEEESaISB_EEP16device_discovery
libixpdimm-cim.so.1:_ZN4wbem6memory23MemoryControllerFactory32generateUniqueMemoryControllerIDB5cxx11EP16device_discovery
libixpdimm-cim.so.1:_ZN4wbem6memory23MemoryControllerFactoryC1Ev
libixpdimm-cim.so.1:_ZN4wbem6memory23MemoryControllerFactoryC2Ev
libixpdimm-cim.so.1:_ZN4wbem6memory23MemoryControllerFactoryD0Ev
libixpdimm-cim.so.1:_ZN4wbem6memory23MemoryControllerFactoryD1Ev
libixpdimm-cim.so.1:_ZN4wbem6memory23MemoryControllerFactoryD2Ev
libixpdimm-cim.so.1:_ZN4wbem6memory23PersistentMemoryFactory11getInstanceERNS_9framework10ObjectPathERSt6vectorINSt7__cxx1112basic_stringIcSt11char_traitsIcESaIcEEESaISB_EE
libixpdimm-cim.so.1:_ZN4wbem6memory23PersistentMemoryFactory12getNumBlocksEy
libixpdimm-cim.so.1:_ZN4wbem6memory23PersistentMemoryFactory12isAssociatedERKNSt7__cxx1112basic_stringIcSt11char_traitsIcESaIcEEEPNS_9framework8InstanceESC_
libixpdimm-cim.so.1:_ZN4wbem6memory23PersistentMemoryFactory12pmTypesMatchEP4poolPNS_9framework8InstanceE
libixpdimm-cim.so.1:_ZN4wbem6memory23PersistentMemoryFactory12socketsMatchEP4poolPNS_9framework8InstanceE
libixpdimm-cim.so.1:_ZN4wbem6memory23PersistentMemoryFactory12validatePathERKNS_9framework10ObjectPathE
libixpdimm-cim.so.1:_ZN4wbem6memory23PersistentMemoryFactory15getInstanceNameERKNSt7__cxx1112basic_stringIcSt11char_traitsIcESaIcEEE
libixpdimm-cim.so.1:_ZN4wbem6memory23PersistentMemoryFactory16getInstanceNamesEv
libixpdimm-cim.so.1:_ZN4wbem6memory23PersistentMemoryFactory16mirroringMatchesEP4poolPNS_9framework8InstanceE
libixpdimm-cim.so.1:_ZN4wbem6memory23PersistentMemoryFactory19poolMatchesPmObjectEP4poolPNS_9framework8InstanceE
libixpdimm-cim.so.1:_ZN4wbem6memory23PersistentMemoryFactory20getHealthStateStringB5cxx11Et
libixpdimm-cim.so.1:_ZN4wbem6memory23PersistentMemoryFactory20getInterleaveSetUuidB5cxx11Ejj
libixpdimm-cim.so.1:_ZN4wbem6memory23PersistentMemoryFactory20getReplicationStringB5cxx11Et
libixpdimm-cim.so.1:_ZN4wbem6memory23PersistentMemoryFactory20getStorageRegionUuidERKNSt7__cxx1112basic_stringIcSt11char_traitsIcESaIcEEE
libixpdimm-cim.so.1:_ZN4wbem6memory23PersistentMemoryFactory21getAppDirectAlignmentEv
libixpdimm-cim.so.1:_ZN4wbem6memory23PersistentMemoryFactory21getEnabledStateStringB5cxx11Et
libixpdimm-cim.so.1:_ZN4wbem6memory23PersistentMemoryFactory21populateAttributeListERSt6vectorINSt7__cxx1112basic_stringIcSt11char_traitsIcESaIcEEESaIS8_EE
libixpdimm-cim.so.1:_ZN4wbem6memory23PersistentMemoryFactory24findInterleaveSetForUuidERKNSt7__cxx1112basic_stringIcSt11char_traitsIcESaIcEEERK4poolR14interleave_set
libixpdimm-cim.so.1:_ZN4wbem6memory23PersistentMemoryFactory26getAccessGranularityStringB5cxx11Et
libixpdimm-cim.so.1:_ZN4wbem6memory23PersistentMemoryFactory26getOperationalStatusStringB5cxx11Et
libixpdimm-cim.so.1:_ZN4wbem6memory23PersistentMemoryFactory27findStorageDimmIndexForUuidERKNSt7__cxx1112basic_stringIcSt11char_traitsIcESaIcEEERK4poolRm
libixpdimm-cim.so.1:_ZN4wbem6memory23PersistentMemoryFactory27getInterleaveSetHealthStateERK14interleave_set
libixpdimm-cim.so.1:_ZN4wbem6memory23PersistentMemoryFactory27getStorageRegionHealthStateEPKc
libixpdimm-cim.so.1:_ZN4wbem6memory23PersistentMemoryFactory27isPersistentMemoryUsingDimmERKNSt7__cxx1112basic_stringIcSt11char_traitsIcESaIcEEES9_
libixpdimm-cim.so.1:_ZN4wbem6memory23PersistentMemoryFactory28setGenericInstanceAttributesERNS_9framework8InstanceERKSt6vectorINSt7__cxx1112basic_stringIcSt11char_traitsIcESaIcEEESaISB_EEt
libixpdimm-cim.so.1:_ZN4wbem6memory23PersistentMemoryFactory29getInterleaveSetInstanceNamesERSt6vectorINS_9framework10ObjectPathESaIS4_EERK4pool
libixpdimm-cim.so.1:_ZN4wbem6memory23PersistentMemoryFactory29getStorageRegionInstanceNamesERSt6vectorINS_9framework10ObjectPathESaIS4_EERK4pool
libixpdimm-cim.so.1:_ZN4wbem6memory23PersistentMemoryFactory33getInterleaveSetOperationalStatusERK14interleave_set
libixpdimm-cim.so.1:_ZN4wbem6memory23PersistentMemoryFactory33getStorageRegionOperationalStatusEPKc
libixpdimm-cim.so.1:_ZN4wbem6memory23PersistentMemoryFactory34setInterleaveSetInstanceAttributesERNS_9framework8InstanceERKSt6vectorINSt7__cxx1112basic_stringIcSt11char_traitsIcESaIcEEESaISB_EERK14interleave_set
libixpdimm-cim.so.1:_ZN4wbem6memory23PersistentMemoryFactory55isPersistentMemoryAssociatedToPersistentMemoryNamespaceERNS_9framework8InstanceES4_
libixpdimm-cim.so.1:_ZN4wbem6memory23PersistentMemoryFactoryC1Ev
libixpdimm-cim.so.1:_ZN4wbem6memory23PersistentMemoryFactoryC2Ev
libixpdimm-cim.so.1:_ZN4wbem6memory23PersistentMemoryFactoryD0Ev
libixpdimm-cim.so.1:_ZN4wbem6memory23PersistentMemoryFactoryD1Ev
libixpdimm-cim.so.1:_ZN4wbem6memory23PersistentMemoryFactoryD2Ev
libixpdimm-cim.so.1:_ZN4wbem6server11getHostNameB5cxx11Ev
libixpdimm-cim.so.1:_ZN4wbem6server17BaseServerFactory10toInstanceERN4core6system10SystemInfoERNS_9framework8InstanceESt6vectorINSt7__cxx1112basic_stringIcSt11char_traitsIcESaIcEEESaISF_EE
libixpdimm-cim.so.1:_ZN4wbem6server17BaseServerFactory11getInstanceERNS_9framework10ObjectPathERSt6vectorINSt7__cxx1112basic_stringIcSt11char_traitsIcESaIcEEESaISB_EE
libixpdimm-cim.so.1:_ZN4wbem6server17BaseServerFactory14hostToOpStatusEbb
libixpdimm-cim.so.1:_ZN4wbem6server17BaseServerFactory14modifyInstanceERNS_9framework10ObjectPathERSt3mapINSt7__cxx1112basic_stringIcSt11char_traitsIcESaIcEEENS2_9AttributeESt4lessISB_ESaISt4pairIKSB_SC_EEE
libixpdimm-cim.so.1:_ZN4wbem6server17BaseServerFactory14updateConfigDbEjNSt7__cxx1112basic_stringIcSt11char_traitsIcESaIcEEE
libixpdimm-cim.so.1:_ZN4wbem6server17BaseServerFactory15setDebugLoggingEi
libixpdimm-cim.so.1:_ZN4wbem6server17BaseServerFactory16getInstanceNamesEv
libixpdimm-cim.so.1:_ZN4wbem6server17BaseServerFactory17setUserPreferenceEPKcS3_
libixpdimm-cim.so.1:_ZN4wbem6server17BaseServerFactory18validateObjectPathERNS_9framework10ObjectPathE
libixpdimm-cim.so.1:_ZN4wbem6server17BaseServerFactory19addDefaultSimulatorENSt7__cxx1112basic_stringIcSt11char_traitsIcESaIcEEE
libixpdimm-cim.so.1:_ZN4wbem6server17BaseServerFactory21populateAttributeListERSt6vectorINSt7__cxx1112basic_stringIcSt11char_traitsIcESaIcEEESaIS8_EE
libixpdimm-cim.so.1:_ZN4wbem6server17BaseServerFactory22getNewAttributeIfFoundERSt3mapINSt7__cxx1112basic_stringIcSt11char_traitsIcESaIcEEENS_9framework9AttributeESt4lessIS8_ESaISt4pairIKS8_SA_EEERSA_S8_
libixpdimm-cim.so.1:_ZN4wbem6server17BaseServerFactory22removeDefaultSimulatorEv
libixpdimm-cim.so.1:_ZN4wbem6server17BaseServerFactoryC1Ev
libixpdimm-cim.so.1:_ZN4wbem6server17BaseServerFactoryC2Ev
libixpdimm-cim.so.1:_ZN4wbem6server17BaseServerFactoryD0Ev
libixpdimm-cim.so.1:_ZN4wbem6server17BaseServerFactoryD1Ev
libixpdimm-cim.so.1:_ZN4wbem6server17BaseServerFactoryD2Ev
libixpdimm-cim.so.1:_ZN4wbem6server20ServerChassisFactory11getInstanceERNS_9framework10ObjectPathERSt6vectorINSt7__cxx1112basic_stringIcSt11char_traitsIcESaIcEEESaISB_EE
libixpdimm-cim.so.1:_ZN4wbem6server20ServerChassisFactory16getInstanceNamesEv
libixpdimm-cim.so.1:_ZN4wbem6server20ServerChassisFactory21populateAttributeListERSt6vectorINSt7__cxx1112basic_stringIcSt11char_traitsIcESaIcEEESaIS8_EE
libixpdimm-cim.so.1:_ZN4wbem6server20ServerChassisFactoryC1Ev
libixpdimm-cim.so.1:_ZN4wbem6server20ServerChassisFactoryC2Ev
libixpdimm-cim.so.1:_ZN4wbem6server20ServerChassisFactoryD0Ev
libixpdimm-cim.so.1:_ZN4wbem6server20ServerChassisFactoryD1Ev
libixpdimm-cim.so.1:_ZN4wbem6server20ServerChassisFactoryD2Ev
libixpdimm-cim.so.1:_ZN4wbem6server25SystemCapabilitiesFactory11getInstanceERNS_9framework10ObjectPathERSt6vectorINSt7__cxx1112basic_stringIcSt11char_traitsIcESaIcEEESaISB_EE
libixpdimm-cim.so.1:_ZN4wbem6server25SystemCapabilitiesFactory16getInstanceNamesEv
libixpdimm-cim.so.1:_ZN4wbem6server25SystemCapabilitiesFactory20getSupportedSettingsB5cxx11ERK16nvm_capabilities
libixpdimm-cim.so.1:_ZN4wbem6server25SystemCapabilitiesFactory21getAppDirectAlignmentERK16nvm_capabilities
libixpdimm-cim.so.1:_ZN4wbem6server25SystemCapabilitiesFactory21populateAttributeListERSt6vectorINSt7__cxx1112basic_stringIcSt11char_traitsIcESaIcEEESaIS8_EE
libixpdimm-cim.so.1:_ZN4wbem6server25SystemCapabilitiesFactory22getCurrentVolatileModeB5cxx11ERK16nvm_capabilities
libixpdimm-cim.so.1:_ZN4wbem6server25SystemCapabilitiesFactory22getRecommendedSettingsB5cxx11ERK16nvm_capabilities
libixpdimm-cim.so.1:_ZN4wbem6server25SystemCapabilitiesFactory23getCurrentAppDirectModeB5cxx11ERK16nvm_capabilities
libixpdimm-cim.so.1:_ZN4wbem6server25SystemCapabilitiesFactory23getSupportedMemoryModesB5cxx11ERK16nvm_capabilities
libixpdimm-cim.so.1:_ZN4wbem6server25SystemCapabilitiesFactory25getInterleaveSetFormatStrB5cxx11ERK17interleave_formatb
libixpdimm-cim.so.1:_ZN4wbem6server25SystemCapabilitiesFactory26addFormatStringIfNotInListERSt6vectorINSt7__cxx1112basic_stringIcSt11char_traitsIcESaIcEEESaIS8_EERK17interleave_formatb
libixpdimm-cim.so.1:_ZN4wbem6server25SystemCapabilitiesFactory31addCapabilitySupportedAttributeEPNS_9framework8InstanceESt6vectorINSt7__cxx1112basic_stringIcSt11char_traitsIcESaIcEEESaISB_EESB_b
libixpdimm-cim.so.1:_ZN4wbem6server25SystemCapabilitiesFactoryC1Ev
libixpdimm-cim.so.1:_ZN4wbem6server25SystemCapabilitiesFactoryC2Ev
libixpdimm-cim.so.1:_ZN4wbem6server25SystemCapabilitiesFactoryD0Ev
libixpdimm-cim.so.1:_ZN4wbem6server25SystemCapabilitiesFactoryD1Ev
libixpdimm-cim.so.1:_ZN4wbem6server25SystemCapabilitiesFactoryD2Ev
libixpdimm-cim.so.1:_ZN4wbem7erasure21ErasureServiceFactory11eraseDeviceENSt7__cxx1112basic_stringIcSt11char_traitsIcESaIcEEE
libixpdimm-cim.so.1:_ZN4wbem7erasure21ErasureServiceFactory11eraseDeviceENSt7__cxx1112basic_stringIcSt11char_traitsIcESaIcEEES7_
libixpdimm-cim.so.1:_ZN4wbem7erasure21ErasureServiceFactory11getInstanceERNS_9framework10ObjectPathERSt6vectorINSt7__cxx1112basic_stringIcSt11char_traitsIcESaIcEEESaISB_EE
libixpdimm-cim.so.1:_ZN4wbem7erasure21ErasureServiceFactory12getEraseTypeENSt7__cxx1112basic_stringIcSt11char_traitsIcESaIcEEE
libixpdimm-cim.so.1:_ZN4wbem7erasure21ErasureServiceFactory13executeMethodERjNSt7__cxx1112basic_stringIcSt11char_traitsIcESaIcEEERNS_9framework10ObjectPathERSt3mapIS8_NS9_9AttributeESt4lessIS8_ESaISt4pairIKS8_SD_EEESL_
libixpdimm-cim.so.1:_ZN4wbem7erasure21ErasureServiceFactory16getInstanceNamesEv
libixpdimm-cim.so.1:_ZN4wbem7erasure21ErasureServiceFactory21populateAttributeListERSt6vectorINSt7__cxx1112basic_stringIcSt11char_traitsIcESaIcEEESaIS8_EE
libixpdimm-cim.so.1:_ZN4wbem7erasure21ErasureServiceFactory29getReturnCodeFromLibExceptionERKNS_9exception20NvmExceptionLibErrorE
libixpdimm-cim.so.1:_ZN4wbem7erasure21ErasureServiceFactoryC1Ev
libixpdimm-cim.so.1:_ZN4wbem7erasure21ErasureServiceFactoryC2Ev
libixpdimm-cim.so.1:_ZN4wbem7erasure21ErasureServiceFactoryD0Ev
libixpdimm-cim.so.1:_ZN4wbem7erasure21ErasureServiceFactoryD1Ev
libixpdimm-cim.so.1:_ZN4wbem7erasure21ErasureServiceFactoryD2Ev
libixpdimm-cim.so.1:_ZN4wbem7erasure26ErasureCapabilitiesFactory11getInstanceERNS_9framework10ObjectPathERSt6vectorINSt7__cxx1112basic_stringIcSt11char_traitsIcESaIcEEESaISB_EE
libixpdimm-cim.so.1:_ZN4wbem7erasure26ErasureCapabilitiesFactory16getInstanceNamesEv
libixpdimm-cim.so.1:_ZN4wbem7erasure26ErasureCapabilitiesFactory21populateAttributeListERSt6vectorINSt7__cxx1112basic_stringIcSt11char_traitsIcESaIcEEESaIS8_EE
libixpdimm-cim.so.1:_ZN4wbem7erasure26ErasureCapabilitiesFactoryC1Ev
libixpdimm-cim.so.1:_ZN4wbem7erasure26ErasureCapabilitiesFactoryC2Ev
libixpdimm-cim.so.1:_ZN4wbem7erasure26ErasureCapabilitiesFactoryD0Ev
libixpdimm-cim.so.1:_ZN4wbem7erasure26ErasureCapabilitiesFactoryD1Ev
libixpdimm-cim.so.1:_ZN4wbem7erasure26ErasureCapabilitiesFactoryD2Ev
libixpdimm-cim.so.1:_ZN4wbem7profile24RegisteredProfileFactory11getInstanceERNS_9framework10ObjectPathERSt6vectorINSt7__cxx1112basic_stringIcSt11char_traitsIcESaIcEEESaISB_EE
libixpdimm-cim.so.1:_ZN4wbem7profile24RegisteredProfileFactory12isAssociatedERKNSt7__cxx1112basic_stringIcSt11char_traitsIcESaIcEEEPNS_9framework8InstanceESC_
libixpdimm-cim.so.1:_ZN4wbem7profile24RegisteredProfileFactory16getInstanceNamesEv
libixpdimm-cim.so.1:_ZN4wbem7profile24RegisteredProfileFactory19buildProfileInfoMapEv
libixpdimm-cim.so.1:_ZN4wbem7profile24RegisteredProfileFactory21populateAttributeListERSt6vectorINSt7__cxx1112basic_stringIcSt11char_traitsIcESaIcEEESaIS8_EE
libixpdimm-cim.so.1:_ZN4wbem7profile24RegisteredProfileFactory28buildInstanceFromProfileInfoERNS_9framework8InstanceERKSt6vectorINSt7__cxx1112basic_stringIcSt11char_traitsIcESaIcEEESaISB_EERKNS1_11ProfileInfoE
libixpdimm-cim.so.1:_ZN4wbem7profile24RegisteredProfileFactory31buildInstanceFromProfileInfoMapERNS_9framework8InstanceERKSt6vectorINSt7__cxx1112basic_stringIcSt11char_traitsIcESaIcEEESaISB_EE
libixpdimm-cim.so.1:_ZN4wbem7profile24RegisteredProfileFactory37isElementConformsToProfileAssociationERKNS_9framework8InstanceES5_
libixpdimm-cim.so.1:_ZN4wbem7profile24RegisteredProfileFactoryC1Ev
libixpdimm-cim.so.1:_ZN4wbem7profile24RegisteredProfileFactoryC2Ev
libixpdimm-cim.so.1:_ZN4wbem7profile24RegisteredProfileFactoryD0Ev
libixpdimm-cim.so.1:_ZN4wbem7profile24RegisteredProfileFactoryD1Ev
libixpdimm-cim.so.1:_ZN4wbem7profile24RegisteredProfileFactoryD2Ev
libixpdimm-cim.so.1:_ZN4wbem7support14EventLogFilter10getEventIdEv
libixpdimm-cim.so.1:_ZN4wbem7support14EventLogFilter10setEventIdERKj
libixpdimm-cim.so.1:_ZN4wbem7support14EventLogFilter11getSeverityEv
libixpdimm-cim.so.1:_ZN4wbem7support14EventLogFilter11setSeverityERKj
libixpdimm-cim.so.1:_ZN4wbem7support14EventLogFilter17getActionRequiredEv
libixpdimm-cim.so.1:_ZN4wbem7support14EventLogFilter17getAfterTimestampEv
libixpdimm-cim.so.1:_ZN4wbem7support14EventLogFilter17setActionRequiredERKb
libixpdimm-cim.so.1:_ZN4wbem7support14EventLogFilter17setAfterTimestampERKl
libixpdimm-cim.so.1:_ZN4wbem7support14EventLogFilter18getBeforeTimestampEv
libixpdimm-cim.so.1:_ZN4wbem7support14EventLogFilter18setBeforeTimestampERKl
libixpdimm-cim.so.1:_ZN4wbem7support14EventLogFilter6getUidB5cxx11Ev
libixpdimm-cim.so.1:_ZN4wbem7support14EventLogFilter6setUidERKNSt7__cxx1112basic_stringIcSt11char_traitsIcESaIcEEE
libixpdimm-cim.so.1:_ZN4wbem7support14EventLogFilter7getCodeEv
libixpdimm-cim.so.1:_ZN4wbem7support14EventLogFilter7getTypeEv
libixpdimm-cim.so.1:_ZN4wbem7support14EventLogFilter7setCodeERKt
libixpdimm-cim.so.1:_ZN4wbem7support14EventLogFilter7setTypeERKj
libixpdimm-cim.so.1:_ZN4wbem7support14EventLogFilterC1Ev
libixpdimm-cim.so.1:_ZN4wbem7support14EventLogFilterC2Ev
libixpdimm-cim.so.1:_ZN4wbem7support14EventLogFilterD0Ev
libixpdimm-cim.so.1:_ZN4wbem7support14EventLogFilterD1Ev
libixpdimm-cim.so.1:_ZN4wbem7support14EventLogFilterD2Ev
libixpdimm-cim.so.1:_ZN4wbem7support17FWEventLogFactory11getInstanceERNS_9framework10ObjectPathERSt6vectorINSt7__cxx1112basic_stringIcSt11char_traitsIcESaIcEEESaISB_EE
libixpdimm-cim.so.1:_ZN4wbem7support17FWEventLogFactory16getInstanceNamesEv
libixpdimm-cim.so.1:_ZN4wbem7support17FWEventLogFactory21populateAttributeListERSt6vectorINSt7__cxx1112basic_stringIcSt11char_traitsIcESaIcEEESaIS8_EE
libixpdimm-cim.so.1:_ZN4wbem7support17FWEventLogFactoryC1Ev
libixpdimm-cim.so.1:_ZN4wbem7support17FWEventLogFactoryC2Ev
libixpdimm-cim.so.1:_ZN4wbem7support17FWEventLogFactoryD0Ev
libixpdimm-cim.so.1:_ZN4wbem7support17FWEventLogFactoryD1Ev
libixpdimm-cim.so.1:_ZN4wbem7support17FWEventLogFactoryD2Ev
libixpdimm-cim.so.1:_ZN4wbem7support18SanitizeJobFactory11getInstanceERNS_9framework10ObjectPathERSt6vectorINSt7__cxx1112basic_stringIcSt11char_traitsIcESaIcEEESaISB_EE
libixpdimm-cim.so.1:_ZN4wbem7support18SanitizeJobFactory16getInstanceNamesEv
libixpdimm-cim.so.1:_ZN4wbem7support18SanitizeJobFactory21populateAttributeListERSt6vectorINSt7__cxx1112basic_stringIcSt11char_traitsIcESaIcEEESaIS8_EE
libixpdimm-cim.so.1:_ZN4wbem7support18SanitizeJobFactoryC1Ev
libixpdimm-cim.so.1:_ZN4wbem7support18SanitizeJobFactoryC2Ev
libixpdimm-cim.so.1:_ZN4wbem7support18SanitizeJobFactoryD0Ev
libixpdimm-cim.so.1:_ZN4wbem7support18SanitizeJobFactoryD1Ev
libixpdimm-cim.so.1:_ZN4wbem7support18SanitizeJobFactoryD2Ev
libixpdimm-cim.so.1:_ZN4wbem7support19NVDIMMSensorFactory11getInstanceERNS_9framework10ObjectPathERSt6vectorINSt7__cxx1112basic_stringIcSt11char_traitsIcESaIcEEESaISB_EE
libixpdimm-cim.so.1:_ZN4wbem7support19NVDIMMSensorFactory12decodeIfTempERK11sensor_typeRKy
libixpdimm-cim.so.1:_ZN4wbem7support19NVDIMMSensorFactory12getInstancesERSt6vectorINSt7__cxx1112basic_stringIcSt11char_traitsIcESaIcEEESaIS8_EE
libixpdimm-cim.so.1:_ZN4wbem7support19NVDIMMSensorFactory12isAssociatedERKNSt7__cxx1112basic_stringIcSt11char_traitsIcESaIcEEEPNS_9framework8InstanceESC_
libixpdimm-cim.so.1:_ZN4wbem7support19NVDIMMSensorFactory12updateSensorERKNSt7__cxx1112basic_stringIcSt11char_traitsIcESaIcEEEiRKSt3mapIS7_NS_9framework9AttributeESt4lessIS7_ESaISt4pairIS8_SC_EEEPNSB_8InstanceE
libixpdimm-cim.so.1:_ZN4wbem7support19NVDIMMSensorFactory13getSensorPathEiRKNSt7__cxx1112basic_stringIcSt11char_traitsIcESaIcEEES9_
libixpdimm-cim.so.1:_ZN4wbem7support19NVDIMMSensorFactory14modifyInstanceERNS_9framework10ObjectPathERSt3mapINSt7__cxx1112basic_stringIcSt11char_traitsIcESaIcEEENS2_9AttributeESt4lessISB_ESaISt4pairIKSB_SC_EEE
libixpdimm-cim.so.1:_ZN4wbem7support19NVDIMMSensorFactory16getInstanceNamesEv
libixpdimm-cim.so.1:_ZN4wbem7support19NVDIMMSensorFactory16isTempSensorTypeERK11sensor_type
libixpdimm-cim.so.1:_ZN4wbem7support19NVDIMMSensorFactory16nvmTempToCimTempERKy
libixpdimm-cim.so.1:_ZN4wbem7support19NVDIMMSensorFactory16sensorToInstanceERKSt6vectorINSt7__cxx1112basic_stringIcSt11char_traitsIcESaIcEEESaIS8_EERK6sensorRNS_9framework8InstanceE
libixpdimm-cim.so.1:_ZN4wbem7support19NVDIMMSensorFactory17getSensorStateStrB5cxx11E13sensor_status
libixpdimm-cim.so.1:_ZN4wbem7support19NVDIMMSensorFactory17realTempToCimTempERKf
libixpdimm-cim.so.1:_ZN4wbem7support19NVDIMMSensorFactory18scaleNumberBaseTenEyPiS2_
libixpdimm-cim.so.1:_ZN4wbem7support19NVDIMMSensorFactory20getCIMSensorTypeCodeEi
libixpdimm-cim.so.1:_ZN4wbem7support19NVDIMMSensorFactory21populateAttributeListERSt6vectorINSt7__cxx1112basic_stringIcSt11char_traitsIcESaIcEEESaIS8_EE
libixpdimm-cim.so.1:_ZN4wbem7support19NVDIMMSensorFactory22getCIMSensorDeviceNameB5cxx11Ei
libixpdimm-cim.so.1:_ZN4wbem7support19NVDIMMSensorFactory22getSensorEnabledStringB5cxx11Et
libixpdimm-cim.so.1:_ZN4wbem7support19NVDIMMSensorFactory22splitDeviceIdAttributeERKNS_9framework9AttributeERNSt7__cxx1112basic_stringIcSt11char_traitsIcESaIcEEERi
libixpdimm-cim.so.1:_ZN4wbem7support19NVDIMMSensorFactory23getCIMSensorElementNameB5cxx11Ei
libixpdimm-cim.so.1:_ZN4wbem7support19NVDIMMSensorFactory23tempAttributeToNvmValueERKNS_9framework9AttributeE
libixpdimm-cim.so.1:_ZN4wbem7support19NVDIMMSensorFactory25getCIMSensorOtherTypeNameB5cxx11Ei
libixpdimm-cim.so.1:_ZN4wbem7support19NVDIMMSensorFactory8getNamesEv
libixpdimm-cim.so.1:_ZN4wbem7support19NVDIMMSensorFactoryC1Ev
libixpdimm-cim.so.1:_ZN4wbem7support19NVDIMMSensorFactoryC2Ev
libixpdimm-cim.so.1:_ZN4wbem7support19NVDIMMSensorFactoryD0Ev
libixpdimm-cim.so.1:_ZN4wbem7support19NVDIMMSensorFactoryD1Ev
libixpdimm-cim.so.1:_ZN4wbem7support19NVDIMMSensorFactoryD2Ev
libixpdimm-cim.so.1:_ZN4wbem7support20DiagnosticLogFactory11getInstanceERNS_9framework10ObjectPathERSt6vectorINSt7__cxx1112basic_stringIcSt11char_traitsIcESaIcEEESaISB_EE
libixpdimm-cim.so.1:_ZN4wbem7support20DiagnosticLogFactory13executeMethodERjNSt7__cxx1112basic_stringIcSt11char_traitsIcESaIcEEERNS_9framework10ObjectPathERSt3mapIS8_NS9_9AttributeESt4lessIS8_ESaISt4pairIKS8_SD_EEESL_
libixpdimm-cim.so.1:_ZN4wbem7support20DiagnosticLogFactory16getInstanceNamesEv
libixpdimm-cim.so.1:_ZN4wbem7support20DiagnosticLogFactory18clearDiagnosticLogEv
libixpdimm-cim.so.1:_ZN4wbem7support20DiagnosticLogFactory21populateAttributeListERSt6vectorINSt7__cxx1112basic_stringIcSt11char_traitsIcESaIcEEESaIS8_EE
libixpdimm-cim.so.1:_ZN4wbem7support20DiagnosticLogFactory23gatherDiagnosticResultsEPSt6vectorINS0_16diagnosticResultESaIS3_EE
libixpdimm-cim.so.1:_ZN4wbem7support20DiagnosticLogFactory28buildDiagnosticResultMessageB5cxx11EP5event
libixpdimm-cim.so.1:_ZN4wbem7support20DiagnosticLogFactoryC1Ev
libixpdimm-cim.so.1:_ZN4wbem7support20DiagnosticLogFactoryC2Ev
libixpdimm-cim.so.1:_ZN4wbem7support20DiagnosticLogFactoryD0Ev
libixpdimm-cim.so.1:_ZN4wbem7support20DiagnosticLogFactoryD1Ev
libixpdimm-cim.so.1:_ZN4wbem7support20DiagnosticLogFactoryD2Ev
libixpdimm-cim.so.1:_ZN4wbem7support21NVDIMMEventLogFactory11getInstanceERNS_9framework10ObjectPathERSt6vectorINSt7__cxx1112basic_stringIcSt11char_traitsIcESaIcEEESaISB_EE
libixpdimm-cim.so.1:_ZN4wbem7support21NVDIMMEventLogFactory13clearEventLogEv
libixpdimm-cim.so.1:_ZN4wbem7support21NVDIMMEventLogFactory13executeMethodERjNSt7__cxx1112basic_stringIcSt11char_traitsIcESaIcEEERNS_9framework10ObjectPathERSt3mapIS8_NS9_9AttributeESt4lessIS8_ESaISt4pairIKS8_SD_EEESL_
libixpdimm-cim.so.1:_ZN4wbem7support21NVDIMMEventLogFactory14modifyInstanceERNS_9framework10ObjectPathERSt3mapINSt7__cxx1112basic_stringIcSt11char_traitsIcESaIcEEENS2_9AttributeESt4lessISB_ESaISt4pairIKSB_SC_EEE
libixpdimm-cim.so.1:_ZN4wbem7support21NVDIMMEventLogFactory14verifyIntervalERKSt3mapINSt7__cxx1112basic_stringIcSt11char_traitsIcESaIcEEENS_9framework9AttributeESt4lessIS8_ESaISt4pairIKS8_SA_EEEPNS9_8InstanceERSA_
libixpdimm-cim.so.1:_ZN4wbem7support21NVDIMMEventLogFactory16getInstanceNamesEv
libixpdimm-cim.so.1:_ZN4wbem7support21NVDIMMEventLogFactory16verifyMaxRecordsERKSt3mapINSt7__cxx1112basic_stringIcSt11char_traitsIcESaIcEEENS_9framework9AttributeESt4lessIS8_ESaISt4pairIKS8_SA_EEEPNS9_8InstanceERSA_
libixpdimm-cim.so.1:_ZN4wbem7support21NVDIMMEventLogFactory17getFilteredEventsEPNS0_14EventLogFilterE
libixpdimm-cim.so.1:_ZN4wbem7support21NVDIMMEventLogFactory17updateConfigTableEPKcy
libixpdimm-cim.so.1:_ZN4wbem7support21NVDIMMEventLogFactory18verifyEnabledStateERKSt3mapINSt7__cxx1112basic_stringIcSt11char_traitsIcESaIcEEENS_9framework9AttributeESt4lessIS8_ESaISt4pairIKS8_SA_EEEPNS9_8InstanceERSA_
libixpdimm-cim.so.1:_ZN4wbem7support21NVDIMMEventLogFactory21populateAttributeListERSt6vectorINSt7__cxx1112basic_stringIcSt11char_traitsIcESaIcEEESaIS8_EE
libixpdimm-cim.so.1:_ZN4wbem7support21NVDIMMEventLogFactory27convertFactoryToEventFilterEPNS0_14EventLogFilterEP12event_filter
libixpdimm-cim.so.1:_ZN4wbem7support21NVDIMMEventLogFactory28updateNVDIMMEventLogInstanceERKSt3mapINSt7__cxx1112basic_stringIcSt11char_traitsIcESaIcEEENS_9framework9AttributeESt4lessIS8_ESaISt4pairIKS8_SA_EEEPNS9_8InstanceE
libixpdimm-cim.so.1:_ZN4wbem7support21NVDIMMEventLogFactory29getEventFilterFromConditionalERKNS_9framework14WqlConditionalE
libixpdimm-cim.so.1:_ZN4wbem7support21NVDIMMEventLogFactory36getFilteredEventRefsFromFilterStringERKNSt7__cxx1112basic_stringIcSt11char_traitsIcESaIcEEE
libixpdimm-cim.so.1:_ZN4wbem7support21NVDIMMEventLogFactoryC1Ev
libixpdimm-cim.so.1:_ZN4wbem7support21NVDIMMEventLogFactoryC2Ev
libixpdimm-cim.so.1:_ZN4wbem7support21NVDIMMEventLogFactoryD0Ev
libixpdimm-cim.so.1:_ZN4wbem7support21NVDIMMEventLogFactoryD1Ev
libixpdimm-cim.so.1:_ZN4wbem7support21NVDIMMEventLogFactoryD2Ev
libixpdimm-cim.so.1:_ZN4wbem7support21NVDIMMLogEntryFactory11getInstanceERNS_9framework10ObjectPathERSt6vectorINSt7__cxx1112basic_stringIcSt11char_traitsIcESaIcEEESaISB_EE
libixpdimm-cim.so.1:_ZN4wbem7support21NVDIMMLogEntryFactory14modifyInstanceERNS_9framework10ObjectPathERSt3mapINSt7__cxx1112basic_stringIcSt11char_traitsIcESaIcEEENS2_9AttributeESt4lessISB_ESaISt4pairIKSB_SC_EEE
libixpdimm-cim.so.1:_ZN4wbem7support21NVDIMMLogEntryFactory15eventToInstanceEPNS_9framework8InstanceEP5eventRSt6vectorINSt7__cxx1112basic_stringIcSt11char_traitsIcESaIcEEESaISD_EE
libixpdimm-cim.so.1:_ZN4wbem7support21NVDIMMLogEntryFactory16getInstanceNamesEv
libixpdimm-cim.so.1:_ZN4wbem7support21NVDIMMLogEntryFactory17eventTypeToStringB5cxx11Ei
libixpdimm-cim.so.1:_ZN4wbem7support21NVDIMMLogEntryFactory18populateAttributesERSt6vectorINSt7__cxx1112basic_stringIcSt11char_traitsIcESaIcEEESaIS8_EE
libixpdimm-cim.so.1:_ZN4wbem7support21NVDIMMLogEntryFactory21eventTypeStringToTypeERKNSt7__cxx1112basic_stringIcSt11char_traitsIcESaIcEEE
libixpdimm-cim.so.1:_ZN4wbem7support21NVDIMMLogEntryFactory21populateAttributeListERSt6vectorINSt7__cxx1112basic_stringIcSt11char_traitsIcESaIcEEESaIS8_EE
libixpdimm-cim.so.1:_ZN4wbem7support21NVDIMMLogEntryFactoryC1Ev
libixpdimm-cim.so.1:_ZN4wbem7support21NVDIMMLogEntryFactoryC2Ev
libixpdimm-cim.so.1:_ZN4wbem7support21NVDIMMLogEntryFactoryD0Ev
libixpdimm-cim.so.1:_ZN4wbem7support21NVDIMMLogEntryFactoryD1Ev
libixpdimm-cim.so.1:_ZN4wbem7support21NVDIMMLogEntryFactoryD2Ev
libixpdimm-cim.so.1:_ZN4wbem7support23NVDIMMDiagnosticFactory11getInstanceERNS_9framework10ObjectPathERSt6vectorINSt7__cxx1112basic_stringIcSt11char_traitsIcESaIcEEESaISB_EE
libixpdimm-cim.so.1:_ZN4wbem7support23NVDIMMDiagnosticFactory12isAssociatedERKNSt7__cxx1112basic_stringIcSt11char_traitsIcESaIcEEEPNS_9framework8InstanceESC_
libixpdimm-cim.so.1:_ZN4wbem7support23NVDIMMDiagnosticFactory13executeMethodERjNSt7__cxx1112basic_stringIcSt11char_traitsIcESaIcEEERNS_9framework10ObjectPathERSt3mapIS8_NS9_9AttributeESt4lessIS8_ESaISt4pairIKS8_SD_EEESL_
libixpdimm-cim.so.1:_ZN4wbem7support23NVDIMMDiagnosticFactory13testTypeValidENSt7__cxx1112basic_stringIcSt11char_traitsIcESaIcEEE
libixpdimm-cim.so.1:_ZN4wbem7support23NVDIMMDiagnosticFactory16getInstanceNamesEv
libixpdimm-cim.so.1:_ZN4wbem7support23NVDIMMDiagnosticFactory19testHasSuccessEventE15diagnostic_test
libixpdimm-cim.so.1:_ZN4wbem7support23NVDIMMDiagnosticFactory20RunDiagnosticServiceEPcSt6vectorItSaItEENSt7__cxx1112basic_stringIcSt11char_traitsIcESaIcEEE
libixpdimm-cim.so.1:_ZN4wbem7support23NVDIMMDiagnosticFactory21populateAttributeListERSt6vectorINSt7__cxx1112basic_stringIcSt11char_traitsIcESaIcEEESaIS8_EE
libixpdimm-cim.so.1:_ZN4wbem7support23NVDIMMDiagnosticFactory22getDiagnosticStructureERKNSt7__cxx1112basic_stringIcSt11char_traitsIcESaIcEEERKSt6vectorItSaItEE
libixpdimm-cim.so.1:_ZN4wbem7support23NVDIMMDiagnosticFactory22validateObjectHostNameERKNS_9framework10ObjectPathE
libixpdimm-cim.so.1:_ZN4wbem7support23NVDIMMDiagnosticFactory23getDiagnosticIgnoreListERSt3mapINSt7__cxx1112basic_stringIcSt11char_traitsIcESaIcEEENS_9framework9AttributeESt4lessIS8_ESaISt4pairIKS8_SA_EEE
libixpdimm-cim.so.1:_ZN4wbem7support23NVDIMMDiagnosticFactory24getUidFromManagedElementERSt3mapINSt7__cxx1112basic_stringIcSt11char_traitsIcESaIcEEENS_9framework9AttributeESt4lessIS8_ESaISt4pairIKS8_SA_EEERSE_Pc
libixpdimm-cim.so.1:_ZN4wbem7support23NVDIMMDiagnosticFactory26getSuccessEventCodeForTestE15diagnostic_test
libixpdimm-cim.so.1:_ZN4wbem7support23NVDIMMDiagnosticFactory32validateManagedElementObjectPathERKNSt7__cxx1112basic_stringIcSt11char_traitsIcESaIcEEES7_
libixpdimm-cim.so.1:_ZN4wbem7support23NVDIMMDiagnosticFactoryC1Ev
libixpdimm-cim.so.1:_ZN4wbem7support23NVDIMMDiagnosticFactoryC2Ev
libixpdimm-cim.so.1:_ZN4wbem7support23NVDIMMDiagnosticFactoryD0Ev
libixpdimm-cim.so.1:_ZN4wbem7support23NVDIMMDiagnosticFactoryD1Ev
libixpdimm-cim.so.1:_ZN4wbem7support23NVDIMMDiagnosticFactoryD2Ev
libixpdimm-cim.so.1:_ZN4wbem7support23NVDIMMSensorViewFactory11getInstanceERNS_9framework10ObjectPathERSt6vectorINSt7__cxx1112basic_stringIcSt11char_traitsIcESaIcEEESaISB_EE
libixpdimm-cim.so.1:_ZN4wbem7support23NVDIMMSensorViewFactory16baseUnitToStringB5cxx11Ei
libixpdimm-cim.so.1:_ZN4wbem7support23NVDIMMSensorViewFactory16getInstanceNamesEv
libixpdimm-cim.so.1:_ZN4wbem7support23NVDIMMSensorViewFactory16getSensorNameStrB5cxx11Ei
libixpdimm-cim.so.1:_ZN4wbem7support23NVDIMMSensorViewFactory16sensorToInstanceEPcRK6sensorPNS_9framework8InstanceESt6vectorINSt7__cxx1112basic_stringIcSt11char_traitsIcESaIcEEESaISF_EE
libixpdimm-cim.so.1:_ZN4wbem7support23NVDIMMSensorViewFactory18getEnabledStateStrB5cxx11Ei
libixpdimm-cim.so.1:_ZN4wbem7support23NVDIMMSensorViewFactory19addThresholdForTypeEPNS_9framework8InstanceESt6vectorINSt7__cxx1112basic_stringIcSt11char_traitsIcESaIcEEESaISB_EESB_11sensor_typey
libixpdimm-cim.so.1:_ZN4wbem7support23NVDIMMSensorViewFactory19getThresholdTypeStrB5cxx11Ei
libixpdimm-cim.so.1:_ZN4wbem7support23NVDIMMSensorViewFactory21populateAttributeListERSt6vectorINSt7__cxx1112basic_stringIcSt11char_traitsIcESaIcEEESaIS8_EE
libixpdimm-cim.so.1:_ZN4wbem7support23NVDIMMSensorViewFactoryC1Ev
libixpdimm-cim.so.1:_ZN4wbem7support23NVDIMMSensorViewFactoryC2Ev
libixpdimm-cim.so.1:_ZN4wbem7support23NVDIMMSensorViewFactoryD0Ev
libixpdimm-cim.so.1:_ZN4wbem7support23NVDIMMSensorViewFactoryD1Ev
libixpdimm-cim.so.1:_ZN4wbem7support23NVDIMMSensorViewFactoryD2Ev
libixpdimm-cim.so.1:_ZN4wbem7support23getSensorDescriptionMapEv
libixpdimm-cim.so.1:_ZN4wbem7support24OpaqueSupportDataFactory11getInstanceERNS_9framework10ObjectPathERSt6vectorINSt7__cxx1112basic_stringIcSt11char_traitsIcESaIcEEESaISB_EE
libixpdimm-cim.so.1:_ZN4wbem7support24OpaqueSupportDataFactory16getInstanceNamesEv
libixpdimm-cim.so.1:_ZN4wbem7support24OpaqueSupportDataFactory21populateAttributeListERSt6vectorINSt7__cxx1112basic_stringIcSt11char_traitsIcESaIcEEESaIS8_EE
libixpdimm-cim.so.1:_ZN4wbem7support24OpaqueSupportDataFactoryC1Ev
libixpdimm-cim.so.1:_ZN4wbem7support24OpaqueSupportDataFactoryC2Ev
libixpdimm-cim.so.1:_ZN4wbem7support24OpaqueSupportDataFactoryD0Ev
libixpdimm-cim.so.1:_ZN4wbem7support24OpaqueSupportDataFactoryD1Ev
libixpdimm-cim.so.1:_ZN4wbem7support24OpaqueSupportDataFactoryD2Ev
libixpdimm-cim.so.1:_ZN4wbem7support25DiagnosticIdentityFactory11getInstanceERNS_9framework10ObjectPathERSt6vectorINSt7__cxx1112basic_stringIcSt11char_traitsIcESaIcEEESaISB_EE
libixpdimm-cim.so.1:_ZN4wbem7support25DiagnosticIdentityFactory16getInstanceNamesEv
libixpdimm-cim.so.1:_ZN4wbem7support25DiagnosticIdentityFactory21populateAttributeListERSt6vectorINSt7__cxx1112basic_stringIcSt11char_traitsIcESaIcEEESaIS8_EE
libixpdimm-cim.so.1:_ZN4wbem7support25DiagnosticIdentityFactoryC1Ev
libixpdimm-cim.so.1:_ZN4wbem7support25DiagnosticIdentityFactoryC2Ev
libixpdimm-cim.so.1:_ZN4wbem7support25DiagnosticIdentityFactoryD0Ev
libixpdimm-cim.so.1:_ZN4wbem7support25DiagnosticIdentityFactoryD1Ev
libixpdimm-cim.so.1:_ZN4wbem7support25DiagnosticIdentityFactoryD2Ev
libixpdimm-cim.so.1:_ZN4wbem7support25SupportDataServiceFactory11getInstanceERNS_9framework10ObjectPathERSt6vectorINSt7__cxx1112basic_stringIcSt11char_traitsIcESaIcEEESaISB_EE
libixpdimm-cim.so.1:_ZN4wbem7support25SupportDataServiceFactory13executeMethodERjNSt7__cxx1112basic_stringIcSt11char_traitsIcESaIcEEERNS_9framework10ObjectPathERSt3mapIS8_NS9_9AttributeESt4lessIS8_ESaISt4pairIKS8_SD_EEESL_
libixpdimm-cim.so.1:_ZN4wbem7support25SupportDataServiceFactory16getInstanceNamesEv
libixpdimm-cim.so.1:_ZN4wbem7support25SupportDataServiceFactory21populateAttributeListERSt6vectorINSt7__cxx1112basic_stringIcSt11char_traitsIcESaIcEEESaIS8_EE
libixpdimm-cim.so.1:_ZN4wbem7support25SupportDataServiceFactory5clearEv
libixpdimm-cim.so.1:_ZN4wbem7support25SupportDataServiceFactoryC1Ev
libixpdimm-cim.so.1:_ZN4wbem7support25SupportDataServiceFactoryC2Ev
libixpdimm-cim.so.1:_ZN4wbem7support25SupportDataServiceFactoryD0Ev
libixpdimm-cim.so.1:_ZN4wbem7support25SupportDataServiceFactoryD1Ev
libixpdimm-cim.so.1:_ZN4wbem7support25SupportDataServiceFactoryD2Ev
libixpdimm-cim.so.1:_ZN4wbem7support33DiagnosticCompletionRecordFactory11getInstanceERNS_9framework10ObjectPathERSt6vectorINSt7__cxx1112basic_stringIcSt11char_traitsIcESaIcEEESaISB_EE
libixpdimm-cim.so.1:_ZN4wbem7support33DiagnosticCompletionRecordFactory16getInstanceNamesEv
libixpdimm-cim.so.1:_ZN4wbem7support33DiagnosticCompletionRecordFactory21populateAttributeListERSt6vectorINSt7__cxx1112basic_stringIcSt11char_traitsIcESaIcEEESaIS8_EE
libixpdimm-cim.so.1:_ZN4wbem7support33DiagnosticCompletionRecordFactoryC1Ev
libixpdimm-cim.so.1:_ZN4wbem7support33DiagnosticCompletionRecordFactoryC2Ev
libixpdimm-cim.so.1:_ZN4wbem7support33DiagnosticCompletionRecordFactoryD0Ev
libixpdimm-cim.so.1:_ZN4wbem7support33DiagnosticCompletionRecordFactoryD1Ev
libixpdimm-cim.so.1:_ZN4wbem7support33DiagnosticCompletionRecordFactoryD2Ev
libixpdimm-cim.so.1:_ZN4wbem8software18AvailableFWFactory11getInstanceERNS_9framework10ObjectPathERSt6vectorINSt7__cxx1112basic_stringIcSt11char_traitsIcESaIcEEESaISB_EE
libixpdimm-cim.so.1:_ZN4wbem8software18AvailableFWFactory16getInstanceNamesEv
libixpdimm-cim.so.1:_ZN4wbem8software18AvailableFWFactory21populateAttributeListERSt6vectorINSt7__cxx1112basic_stringIcSt11char_traitsIcESaIcEEESaIS8_EE
libixpdimm-cim.so.1:_ZN4wbem8software18AvailableFWFactoryC1Ev
libixpdimm-cim.so.1:_ZN4wbem8software18AvailableFWFactoryC2Ev
libixpdimm-cim.so.1:_ZN4wbem8software18AvailableFWFactoryD0Ev
libixpdimm-cim.so.1:_ZN4wbem8software18AvailableFWFactoryD1Ev
libixpdimm-cim.so.1:_ZN4wbem8software18AvailableFWFactoryD2Ev
libixpdimm-cim.so.1:_ZN4wbem8software19HostSoftwareFactory11getInstanceERNS_9framework10ObjectPathERSt6vectorINSt7__cxx1112basic_stringIcSt11char_traitsIcESaIcEEESaISB_EE
libixpdimm-cim.so.1:_ZN4wbem8software19HostSoftwareFactory16getInstanceNamesEv
libixpdimm-cim.so.1:_ZN4wbem8software19HostSoftwareFactory21populateAttributeListERSt6vectorINSt7__cxx1112basic_stringIcSt11char_traitsIcESaIcEEESaIS8_EE
libixpdimm-cim.so.1:_ZN4wbem8software19HostSoftwareFactoryC1Ev
libixpdimm-cim.so.1:_ZN4wbem8software19HostSoftwareFactoryC2Ev
libixpdimm-cim.so.1:_ZN4wbem8software19HostSoftwareFactoryD0Ev
libixpdimm-cim.so.1:_ZN4wbem8software19HostSoftwareFactoryD1Ev
libixpdimm-cim.so.1:_ZN4wbem8software19HostSoftwareFactoryD2Ev
libixpdimm-cim.so.1:_ZN4wbem8software22NVDIMMFWVersionFactory11getInstanceERNS_9framework10ObjectPathERSt6vectorINSt7__cxx1112basic_stringIcSt11char_traitsIcESaIcEEESaISB_EE
libixpdimm-cim.so.1:_ZN4wbem8software22NVDIMMFWVersionFactory13getInstanceIdERKNSt7__cxx1112basic_stringIcSt11char_traitsIcESaIcEEES9_14device_fw_typeS9_S9_
libixpdimm-cim.so.1:_ZN4wbem8software22NVDIMMFWVersionFactory15getInstanceNameERKNSt7__cxx1112basic_stringIcSt11char_traitsIcESaIcEEES7_
libixpdimm-cim.so.1:_ZN4wbem8software22NVDIMMFWVersionFactory15parseInstanceIdENSt7__cxx1112basic_stringIcSt11char_traitsIcESaIcEEERS7_S8_RtS8_S8_
libixpdimm-cim.so.1:_ZN4wbem8software22NVDIMMFWVersionFactory15translateFwTypeB5cxx11Et
libixpdimm-cim.so.1:_ZN4wbem8software22NVDIMMFWVersionFactory16getInstanceNamesEv
libixpdimm-cim.so.1:_ZN4wbem8software22NVDIMMFWVersionFactory21populateAttributeListERSt6vectorINSt7__cxx1112basic_stringIcSt11char_traitsIcESaIcEEESaIS8_EE
libixpdimm-cim.so.1:_ZN4wbem8software22NVDIMMFWVersionFactory29getActiveFirmwareInstanceNameERKNSt7__cxx1112basic_stringIcSt11char_traitsIcESaIcEEERN4core6device6DeviceERKNSB_18DeviceFirmwareInfoE
libixpdimm-cim.so.1:_ZN4wbem8software22NVDIMMFWVersionFactory29getStagedFirmwareInstanceNameERKNSt7__cxx1112basic_stringIcSt11char_traitsIcESaIcEEERN4core6device6DeviceERKNSB_18DeviceFirmwareInfoE
libixpdimm-cim.so.1:_ZN4wbem8software22NVDIMMFWVersionFactory33addFirmwareInstanceNamesForDeviceERSt6vectorINS_9framework10ObjectPathESaIS4_EERKNSt7__cxx1112basic_stringIcSt11char_traitsIcESaIcEEERK16device_discovery
libixpdimm-cim.so.1:_ZN4wbem8software22NVDIMMFWVersionFactory43addFirmwareInstanceNamesForDeviceFromFwInfoERSt6vectorINS_9framework10ObjectPathESaIS4_EERKNSt7__cxx1112basic_stringIcSt11char_traitsIcESaIcEEERN4core6device6DeviceERKNSH_18DeviceFirmwareInfoE
libixpdimm-cim.so.1:_ZN4wbem8software22NVDIMMFWVersionFactoryC1Ev
libixpdimm-cim.so.1:_ZN4wbem8software22NVDIMMFWVersionFactoryC2Ev
libixpdimm-cim.so.1:_ZN4wbem8software22NVDIMMFWVersionFactoryD0Ev
libixpdimm-cim.so.1:_ZN4wbem8software22NVDIMMFWVersionFactoryD1Ev
libixpdimm-cim.so.1:_ZN4wbem8software22NVDIMMFWVersionFactoryD2Ev
libixpdimm-cim.so.1:_ZN4wbem8software23NVDIMMCollectionFactory11getInstanceERNS_9framework10ObjectPathERSt6vectorINSt7__cxx1112basic_stringIcSt11char_traitsIcESaIcEEESaISB_EE
libixpdimm-cim.so.1:_ZN4wbem8software23NVDIMMCollectionFactory13getObjectPathERKNSt7__cxx1112basic_stringIcSt11char_traitsIcESaIcEEE
libixpdimm-cim.so.1:_ZN4wbem8software23NVDIMMCollectionFactory16getInstanceNamesEv
libixpdimm-cim.so.1:_ZN4wbem8software23NVDIMMCollectionFactory21populateAttributeListERSt6vectorINSt7__cxx1112basic_stringIcSt11char_traitsIcESaIcEEESaIS8_EE
libixpdimm-cim.so.1:_ZN4wbem8software23NVDIMMCollectionFactoryC1Ev
libixpdimm-cim.so.1:_ZN4wbem8software23NVDIMMCollectionFactoryC2Ev
libixpdimm-cim.so.1:_ZN4wbem8software23NVDIMMCollectionFactoryD0Ev
libixpdimm-cim.so.1:_ZN4wbem8software23NVDIMMCollectionFactoryD1Ev
libixpdimm-cim.so.1:_ZN4wbem8software23NVDIMMCollectionFactoryD2Ev
libixpdimm-cim.so.1:_ZN4wbem8software27NVDIMMDriverIdentityFactory11getInstanceERNS_9framework10ObjectPathERSt6vectorINSt7__cxx1112basic_stringIcSt11char_traitsIcESaIcEEESaISB_EE
libixpdimm-cim.so.1:_ZN4wbem8software27NVDIMMDriverIdentityFactory13getInstanceIdB5cxx11Ev
libixpdimm-cim.so.1:_ZN4wbem8software27NVDIMMDriverIdentityFactory14getElementNameB5cxx11Ev
libixpdimm-cim.so.1:_ZN4wbem8software27NVDIMMDriverIdentityFactory16getInstanceNamesEv
libixpdimm-cim.so.1:_ZN4wbem8software27NVDIMMDriverIdentityFactory21populateAttributeListERSt6vectorINSt7__cxx1112basic_stringIcSt11char_traitsIcESaIcEEESaIS8_EE
libixpdimm-cim.so.1:_ZN4wbem8software27NVDIMMDriverIdentityFactoryC1ERN4core6system13SystemServiceE
libixpdimm-cim.so.1:_ZN4wbem8software27NVDIMMDriverIdentityFactoryC2ERN4core6system13SystemServiceE
libixpdimm-cim.so.1:_ZN4wbem8software27NVDIMMDriverIdentityFactoryD0Ev
libixpdimm-cim.so.1:_ZN4wbem8software27NVDIMMDriverIdentityFactoryD1Ev
libixpdimm-cim.so.1:_ZN4wbem8software27NVDIMMDriverIdentityFactoryD2Ev
libixpdimm-cim.so.1:_ZN4wbem8software30ElementSoftwareIdentityFactory11getInstanceERNS_9framework10ObjectPathERSt6vectorINSt7__cxx1112basic_stringIcSt11char_traitsIcESaIcEEESaISB_EE
libixpdimm-cim.so.1:_ZN4wbem8software30ElementSoftwareIdentityFactory12initClassMapEv
libixpdimm-cim.so.1:_ZN4wbem8software30ElementSoftwareIdentityFactory16getInstanceNamesEv
libixpdimm-cim.so.1:_ZN4wbem8software30ElementSoftwareIdentityFactory17isActiveFwVersionENSt7__cxx1112basic_stringIcSt11char_traitsIcESaIcEEERN4core6device6DeviceERNS9_18DeviceFirmwareInfoE
libixpdimm-cim.so.1:_ZN4wbem8software30ElementSoftwareIdentityFactory17isStagedFwVersionENSt7__cxx1112basic_stringIcSt11char_traitsIcESaIcEEERN4core6device6DeviceERNS9_18DeviceFirmwareInfoE
libixpdimm-cim.so.1:_ZN4wbem8software30ElementSoftwareIdentityFactory18getAllDeviceFwInfoERN4core6device16DeviceCollectionERNS3_28DeviceFirmwareInfoCollectionE
libixpdimm-cim.so.1:_ZN4wbem8software30ElementSoftwareIdentityFactory18validateObjectPathERKNS_9framework10ObjectPathERbS6_
libixpdimm-cim.so.1:_ZN4wbem8software30ElementSoftwareIdentityFactory20initAssociationTableEv
libixpdimm-cim.so.1:_ZN4wbem8software30ElementSoftwareIdentityFactory20instanceMatchesClassERKNSt7__cxx1112basic_stringIcSt11char_traitsIcESaIcEEE
libixpdimm-cim.so.1:_ZN4wbem8software30ElementSoftwareIdentityFactory21populateAttributeListERSt6vectorINSt7__cxx1112basic_stringIcSt11char_traitsIcESaIcEEESaIS8_EE
libixpdimm-cim.so.1:_ZN4wbem8software30ElementSoftwareIdentityFactory22getDeviceForObjectPathERKNS_9framework10ObjectPathE
libixpdimm-cim.so.1:_ZN4wbem8software30ElementSoftwareIdentityFactory22roleMatchesAssociationERKNSt7__cxx1112basic_stringIcSt11char_traitsIcESaIcEEES9_
libixpdimm-cim.so.1:_ZN4wbem8software30ElementSoftwareIdentityFactory23resultClassMatchesClassERKNSt7__cxx1112basic_stringIcSt11char_traitsIcESaIcEEE
libixpdimm-cim.so.1:_ZN4wbem8software30ElementSoftwareIdentityFactory24getElementSoftwareStatusEbb
libixpdimm-cim.so.1:_ZN4wbem8software30ElementSoftwareIdentityFactory24getFirmwareInfoForDeviceERKNSt7__cxx1112basic_stringIcSt11char_traitsIcESaIcEEE
libixpdimm-cim.so.1:_ZN4wbem8software30ElementSoftwareIdentityFactory25addInstanceNamesForDeviceERSt6vectorINS_9framework10ObjectPathESaIS4_EERKNSt7__cxx1112basic_stringIcSt11char_traitsIcESaIcEEERN4core6device6DeviceERKNSH_18DeviceFirmwareInfoE
libixpdimm-cim.so.1:_ZN4wbem8software30ElementSoftwareIdentityFactory25instanceMatchesObjectPathERKNS_9framework10ObjectPathE
libixpdimm-cim.so.1:_ZN4wbem8software30ElementSoftwareIdentityFactory25resultRoleMatchesRoleNameERKNSt7__cxx1112basic_stringIcSt11char_traitsIcESaIcEEE
libixpdimm-cim.so.1:_ZN4wbem8software30ElementSoftwareIdentityFactory27isAssociationBetweenClassesERKNS_9framework10ObjectPathES5_RKNSt7__cxx1112basic_stringIcSt11char_traitsIcESaIcEEESD_
libixpdimm-cim.so.1:_ZN4wbem8software30ElementSoftwareIdentityFactory28instanceCouldHaveAssociationERKNSt7__cxx1112basic_stringIcSt11char_traitsIcESaIcEEES9_
libixpdimm-cim.so.1:_ZN4wbem8software30ElementSoftwareIdentityFactory30allDeviceFirmwareVersionsMatchERN4core6device16DeviceCollectionERNS3_28DeviceFirmwareInfoCollectionE
libixpdimm-cim.so.1:_ZN4wbem8software30ElementSoftwareIdentityFactory30resultFilterMatchesAssociationERKNSt7__cxx1112basic_stringIcSt11char_traitsIcESaIcEEES9_
libixpdimm-cim.so.1:_ZN4wbem8software30ElementSoftwareIdentityFactory33validateFwVersionToDeviceRefPathsERKNS_9framework10ObjectPathES5_RbS6_
libixpdimm-cim.so.1:_ZN4wbem8software30ElementSoftwareIdentityFactory34addInstanceNameForDeviceCollectionERSt6vectorINS_9framework10ObjectPathESaIS4_EERKNSt7__cxx1112basic_stringIcSt11char_traitsIcESaIcEEERN4core6device16DeviceCollectionERNSH_28DeviceFirmwareInfoCollectionE
libixpdimm-cim.so.1:_ZN4wbem8software30ElementSoftwareIdentityFactory34associationObjectPathMatchesFilterERKNS_9framework10ObjectPathE
libixpdimm-cim.so.1:_ZN4wbem8software30ElementSoftwareIdentityFactory36filterIncludesAssociationsForClassesERKNSt7__cxx1112basic_stringIcSt11char_traitsIcESaIcEEES9_
libixpdimm-cim.so.1:_ZN4wbem8software30ElementSoftwareIdentityFactory38getAttributeObjectPathFromInstancePathERKNS_9framework10ObjectPathERKNSt7__cxx1112basic_stringIcSt11char_traitsIcESaIcEEE
libixpdimm-cim.so.1:_ZN4wbem8software30ElementSoftwareIdentityFactory43validateFwVersionToDeviceCollectionRefPathsERKNS_9framework10ObjectPathES5_RbS6_
libixpdimm-cim.so.1:_ZN4wbem8software30ElementSoftwareIdentityFactoryC1EPNS_9framework8InstanceERKNSt7__cxx1112basic_stringIcSt11char_traitsIcESaIcEEESC_SC_RN4core6device13DeviceServiceERNSE_21DeviceFirmwareServiceERNSD_6system13SystemServiceE
libixpdimm-cim.so.1:_ZN4wbem8software30ElementSoftwareIdentityFactoryC2EPNS_9framework8InstanceERKNSt7__cxx1112basic_stringIcSt11char_traitsIcESaIcEEESC_SC_RN4core6device13DeviceServiceERNSE_21DeviceFirmwareServiceERNSD_6system13SystemServiceE
libixpdimm-cim.so.1:_ZN4wbem8software30ElementSoftwareIdentityFactoryD0Ev
libixpdimm-cim.so.1:_ZN4wbem8software30ElementSoftwareIdentityFactoryD1Ev
libixpdimm-cim.so.1:_ZN4wbem8software30ElementSoftwareIdentityFactoryD2Ev
libixpdimm-cim.so.1:_ZN4wbem8software33ManagementSoftwareIdentityFactory11getInstanceERNS_9framework10ObjectPathERSt6vectorINSt7__cxx1112basic_stringIcSt11char_traitsIcESaIcEEESaISB_EE
libixpdimm-cim.so.1:_ZN4wbem8software33ManagementSoftwareIdentityFactory13getInstanceIdB5cxx11Ev
libixpdimm-cim.so.1:_ZN4wbem8software33ManagementSoftwareIdentityFactory14getElementNameB5cxx11Ev
libixpdimm-cim.so.1:_ZN4wbem8software33ManagementSoftwareIdentityFactory16getInstanceNamesEv
libixpdimm-cim.so.1:_ZN4wbem8software33ManagementSoftwareIdentityFactory21populateAttributeListERSt6vectorINSt7__cxx1112basic_stringIcSt11char_traitsIcESaIcEEESaIS8_EE
libixpdimm-cim.so.1:_ZN4wbem8software33ManagementSoftwareIdentityFactoryC1ERN4core6system13SystemServiceE
libixpdimm-cim.so.1:_ZN4wbem8software33ManagementSoftwareIdentityFactoryC2ERN4core6system13SystemServiceE
libixpdimm-cim.so.1:_ZN4wbem8software33ManagementSoftwareIdentityFactoryD0Ev
libixpdimm-cim.so.1:_ZN4wbem8software33ManagementSoftwareIdentityFactoryD1Ev
libixpdimm-cim.so.1:_ZN4wbem8software33ManagementSoftwareIdentityFactoryD2Ev
libixpdimm-cim.so.1:_ZN4wbem8software40NVDIMMSoftwareInstallationServiceFactory11getInstanceERNS_9framework10ObjectPathERSt6vectorINSt7__cxx1112basic_stringIcSt11char_traitsIcESaIcEEESaISB_EE
libixpdimm-cim.so.1:_ZN4wbem8software40NVDIMMSoftwareInstallationServiceFactory13executeMethodERjNSt7__cxx1112basic_stringIcSt11char_traitsIcESaIcEEERNS_9framework10ObjectPathERSt3mapIS8_NS9_9AttributeESt4lessIS8_ESaISt4pairIKS8_SD_EEESL_
libixpdimm-cim.so.1:_ZN4wbem8software40NVDIMMSoftwareInstallationServiceFactory16getInstanceNamesEv
libixpdimm-cim.so.1:_ZN4wbem8software40NVDIMMSoftwareInstallationServiceFactory21populateAttributeListERSt6vectorINSt7__cxx1112basic_stringIcSt11char_traitsIcESaIcEEESaIS8_EE
libixpdimm-cim.so.1:_ZN4wbem8software40NVDIMMSoftwareInstallationServiceFactory29getReturnCodeFromLibExceptionENS_9exception20NvmExceptionLibErrorE
libixpdimm-cim.so.1:_ZN4wbem8software40NVDIMMSoftwareInstallationServiceFactoryC1Ev
libixpdimm-cim.so.1:_ZN4wbem8software40NVDIMMSoftwareInstallationServiceFactoryC2Ev
libixpdimm-cim.so.1:_ZN4wbem8software40NVDIMMSoftwareInstallationServiceFactoryD0Ev
libixpdimm-cim.so.1:_ZN4wbem8software40NVDIMMSoftwareInstallationServiceFactoryD1Ev
libixpdimm-cim.so.1:_ZN4wbem8software40NVDIMMSoftwareInstallationServiceFactoryD2Ev
libixpdimm-cim.so.1:_ZN4wbem9exception20NvmExceptionLibErrorC1Ei
libixpdimm-cim.so.1:_ZN4wbem9exception20NvmExceptionLibErrorC2Ei
libixpdimm-cim.so.1:_ZN4wbem9exception21NvmExceptionBadFilterC1ERKNSt7__cxx1112basic_stringIcSt11char_traitsIcESaIcEEE
libixpdimm-cim.so.1:_ZN4wbem9exception21NvmExceptionBadFilterC2ERKNSt7__cxx1112basic_stringIcSt11char_traitsIcESaIcEEE
libixpdimm-cim.so.1:_ZN4wbem9exception21NvmExceptionBadFilterD0Ev
libixpdimm-cim.so.1:_ZN4wbem9exception21NvmExceptionBadFilterD1Ev
libixpdimm-cim.so.1:_ZN4wbem9exception21NvmExceptionBadFilterD2Ev
libixpdimm-cim.so.1:_ZN4wbem9exception21NvmExceptionBadTarget17getBadTargetValueB5cxx11Ev
libixpdimm-cim.so.1:_ZN4wbem9exception21NvmExceptionBadTarget9getTargetB5cxx11Ev
libixpdimm-cim.so.1:_ZN4wbem9exception21NvmExceptionBadTargetC1EPKcS3_
libixpdimm-cim.so.1:_ZN4wbem9exception21NvmExceptionBadTargetC2EPKcS3_
libixpdimm-cim.so.1:_ZN4wbem9exception25NvmExceptionNotManageable12getDimmValueB5cxx11Ev
libixpdimm-cim.so.1:_ZN4wbem9exception25NvmExceptionNotManageableC1EPKc
libixpdimm-cim.so.1:_ZN4wbem9exception25NvmExceptionNotManageableC2EPKc
libixpdimm-cim.so.1:_ZN4wbem9exception27NvmExceptionDiagnosticErrorC1Ei
libixpdimm-cim.so.1:_ZN4wbem9exception27NvmExceptionDiagnosticErrorC2Ei
libixpdimm-cim.so.1:_ZN4wbem9exception28NvmExceptionUndoModifyFailedC1Ei
libixpdimm-cim.so.1:_ZN4wbem9exception28NvmExceptionUndoModifyFailedC2Ei
libixpdimm-cim.so.1:_ZN4wbem9exception29NvmExceptionInvalidPoolConfigC1EPKc
libixpdimm-cim.so.1:_ZN4wbem9exception29NvmExceptionInvalidPoolConfigC2EPKc
libixpdimm-cim.so.1:_ZN4wbem9exception29NvmExceptionInvalidPoolConfigD0Ev
libixpdimm-cim.so.1:_ZN4wbem9exception29NvmExceptionInvalidPoolConfigD1Ev
libixpdimm-cim.so.1:_ZN4wbem9exception29NvmExceptionInvalidPoolConfigD2Ev
libixpdimm-cim.so.1:_ZN7monitor11AcpiMonitor14createThermStrB5cxx11E10SMART_TEMP
libixpdimm-cim.so.1:_ZN7monitor11AcpiMonitor16processNewEventsEPchh29fw_error_log_sequence_numbersS2_
libixpdimm-cim.so.1:_ZN7monitor11AcpiMonitor16processNvmEventsE22NVM_NFIT_DEVICE_HANDLE
libixpdimm-cim.so.1:_ZN7monitor11AcpiMonitor16setAcpiInterfaceE21_MonitorAcpiInterface
libixpdimm-cim.so.1:_ZN7monitor11AcpiMonitor24generateSystemEventEntryEPchhPv
libixpdimm-cim.so.1:_ZN7monitor11AcpiMonitor28sendFwErrCntSystemEventEntryEPKcy
libixpdimm-cim.so.1:_ZN7monitor11AcpiMonitor28sendFwErrLogSystemEventEntryEPKcNSt7__cxx1112basic_stringIcSt11char_traitsIcESaIcEEES8_
libixpdimm-cim.so.1:_ZN7monitor11AcpiMonitor38formatMediaSystemEventEntryDescriptionB5cxx11EPcPv
libixpdimm-cim.so.1:_ZN7monitor11AcpiMonitor40formatThermalSystemEventEntryDescriptionB5cxx11EPcPv
libixpdimm-cim.so.1:_ZN7monitor11AcpiMonitor4initEPFv17system_event_typeNSt7__cxx1112basic_stringIcSt11char_traitsIcESaIcEEES7_E
libixpdimm-cim.so.1:_ZN7monitor11AcpiMonitor7monitorEv
libixpdimm-cim.so.1:_ZN7monitor11AcpiMonitorC1ERN4core10NvmLibraryE
libixpdimm-cim.so.1:_ZN7monitor11AcpiMonitorC2ERN4core10NvmLibraryE
libixpdimm-cim.so.1:_ZN7monitor11AcpiMonitorD0Ev
libixpdimm-cim.so.1:_ZN7monitor11AcpiMonitorD1Ev
libixpdimm-cim.so.1:_ZN7monitor11AcpiMonitorD2Ev
libixpdimm-cim.so.1:_ZN7monitor12EventMonitor10startOfDayEv
libixpdimm-cim.so.1:_ZN7monitor12EventMonitor13runDiagnosticE15diagnostic_testRKNSt7__cxx1112basic_stringIcSt11char_traitsIcESaIcEEE
libixpdimm-cim.so.1:_ZN7monitor12EventMonitor14monitorDevicesEv
libixpdimm-cim.so.1:_ZN7monitor12EventMonitor16namespaceDeletedEPKcRKSt6vectorINSt7__cxx1112basic_stringIcSt11char_traitsIcESaIcEEESaIS9_EE
libixpdimm-cim.so.1:_ZN7monitor12EventMonitor17deviceHealthToStrB5cxx11E13device_health
libixpdimm-cim.so.1:_ZN7monitor12EventMonitor17monitorNamespacesEP15persistentStore
libixpdimm-cim.so.1:_ZN7monitor12EventMonitor18getReplacedDimmUidERKSt3mapINSt7__cxx1112basic_stringIcSt11char_traitsIcESaIcEEENS_10deviceInfoESt4lessIS7_ESaISt4pairIKS7_S8_EEERKj
libixpdimm-cim.so.1:_ZN7monitor12EventMonitor18saveStateForDeviceER13db_dimm_state
libixpdimm-cim.so.1:_ZN7monitor12EventMonitor18sensorsIncludeTypeERKSt6vectorI6sensorSaIS2_EE11sensor_type
libixpdimm-cim.so.1:_ZN7monitor12EventMonitor19getCurrentDeviceMapB5cxx11Ev
libixpdimm-cim.so.1:_ZN7monitor12EventMonitor19getSensorsForDeviceERKNS_10deviceInfoE
libixpdimm-cim.so.1:_ZN7monitor12EventMonitor19initializeDimmStateER13db_dimm_stateRKNS_10deviceInfoE
libixpdimm-cim.so.1:_ZN7monitor12EventMonitor20namespaceHealthToStrB5cxx11E16namespace_health
libixpdimm-cim.so.1:_ZN7monitor12EventMonitor21checkConfigGoalStatusERKNSt7__cxx1112basic_stringIcSt11char_traitsIcESaIcEEERKNS_10deviceInfoE
libixpdimm-cim.so.1:_ZN7monitor12EventMonitor21createFwErrorLogEventEPKcy
libixpdimm-cim.so.1:_ZN7monitor12EventMonitor21getSavedTopologyStateEv
libixpdimm-cim.so.1:_ZN7monitor12EventMonitor22getLatestSensorReadingERKSt6vectorI6sensorSaIS2_EE11sensor_typey
libixpdimm-cim.so.1:_ZN7monitor12EventMonitor22getSavedStateForDeviceERKNS_10deviceInfoE
libixpdimm-cim.so.1:_ZN7monitor12EventMonitor23createDeviceHealthEventEPKc13device_healthS3_
libixpdimm-cim.so.1:_ZN7monitor12EventMonitor23monitorChangesForDeviceERKNS_10deviceInfoE
libixpdimm-cim.so.1:_ZN7monitor12EventMonitor23processTopologyNewDimmsERKSt3mapINSt7__cxx1112basic_stringIcSt11char_traitsIcESaIcEEENS_10deviceInfoESt4lessIS7_ESaISt4pairIKS7_S8_EEERSt6vectorIS7_SaIS7_EE
libixpdimm-cim.so.1:_ZN7monitor12EventMonitor24checkDeviceStartUpStatusEv
libixpdimm-cim.so.1:_ZN7monitor12EventMonitor24getTopologyInfoForDeviceERK16device_discovery
libixpdimm-cim.so.1:_ZN7monitor12EventMonitor24saveCurrentTopologyStateERKSt3mapINSt7__cxx1112basic_stringIcSt11char_traitsIcESaIcEEENS_10deviceInfoESt4lessIS7_ESaISt4pairIKS7_S8_EEE
libixpdimm-cim.so.1:_ZN7monitor12EventMonitor25isSavedTopologyStateValidEv
libixpdimm-cim.so.1:_ZN7monitor12EventMonitor25sensorReadingHasIncreasedERKSt6vectorI6sensorSaIS2_EE11sensor_typey
libixpdimm-cim.so.1:_ZN7monitor12EventMonitor26detectFwErrorSensorChangesERKSt6vectorI6sensorSaIS2_EEPKcRK13db_dimm_state
libixpdimm-cim.so.1:_ZN7monitor12EventMonitor27runPlatformConfigDiagnosticEv
libixpdimm-cim.so.1:_ZN7monitor12EventMonitor28acknowledgeDeletedNamespacesEv
libixpdimm-cim.so.1:_ZN7monitor12EventMonitor28addCurrentDevicesToDeviceMapERSt3mapINSt7__cxx1112basic_stringIcSt11char_traitsIcESaIcEEENS_10deviceInfoESt4lessIS7_ESaISt4pairIKS7_S8_EEE
libixpdimm-cim.so.1:_ZN7monitor12EventMonitor28createSanitizeOperationEventEPKc22device_sanitize_statusS3_
libixpdimm-cim.so.1:_ZN7monitor12EventMonitor28getConfigGoalStatusForDeviceERKNSt7__cxx1112basic_stringIcSt11char_traitsIcESaIcEEE
libixpdimm-cim.so.1:_ZN7monitor12EventMonitor28processTopologyModifiedDimmsERKSt3mapINSt7__cxx1112basic_stringIcSt11char_traitsIcESaIcEEENS_10deviceInfoESt4lessIS7_ESaISt4pairIKS7_S8_EEERKSt6vectorIS7_SaIS7_EE
libixpdimm-cim.so.1:_ZN7monitor12EventMonitor28updateStateForFwErrorSensorsER13db_dimm_stateRKSt6vectorI6sensorSaIS4_EE
libixpdimm-cim.so.1:_ZN7monitor12EventMonitor29acknowledgeEventCodeForDeviceEiPKc
libixpdimm-cim.so.1:_ZN7monitor12EventMonitor29acknowledgeEventTypeForDeviceE10event_typeRKNSt7__cxx1112basic_stringIcSt11char_traitsIcESaIcEEE
libixpdimm-cim.so.1:_ZN7monitor12EventMonitor29checkDeviceTopologyForChangesERKSt3mapINSt7__cxx1112basic_stringIcSt11char_traitsIcESaIcEEENS_10deviceInfoESt4lessIS7_ESaISt4pairIKS7_S8_EEE
libixpdimm-cim.so.1:_ZN7monitor12EventMonitor29processHealthChangesForDeviceERKNS_10deviceInfoER13db_dimm_state
libixpdimm-cim.so.1:_ZN7monitor12EventMonitor30checkConfigStatusForAllDevicesERSt3mapINSt7__cxx1112basic_stringIcSt11char_traitsIcESaIcEEENS_10deviceInfoESt4lessIS7_ESaISt4pairIKS7_S8_EEE
libixpdimm-cim.so.1:_ZN7monitor12EventMonitor30initializeSensorStateForDeviceER13db_dimm_stateRKNS_10deviceInfoE
libixpdimm-cim.so.1:_ZN7monitor12EventMonitor31getEventSeverityForDeviceHealthE13device_health
libixpdimm-cim.so.1:_ZN7monitor12EventMonitor31isActionRequiredForDeviceHealthE13device_health
libixpdimm-cim.so.1:_ZN7monitor12EventMonitor31processSanitizeChangesForDeviceERKNS_10deviceInfoER13db_dimm_state
libixpdimm-cim.so.1:_ZN7monitor12EventMonitor32addSavedTopologyStateToDeviceMapERSt3mapINSt7__cxx1112basic_stringIcSt11char_traitsIcESaIcEEENS_10deviceInfoESt4lessIS7_ESaISt4pairIKS7_S8_EEE
libixpdimm-cim.so.1:_ZN7monitor12EventMonitor33runQuickHealthDiagnosticForDeviceERKNSt7__cxx1112basic_stringIcSt11char_traitsIcESaIcEEE
libixpdimm-cim.so.1:_ZN7monitor12EventMonitor34processSensorStateChangesForDeviceERKNS_10deviceInfoER13db_dimm_state
libixpdimm-cim.so.1:_ZN7monitor12EventMonitor36getCurrentDeviceMapWithSavedTopologyB5cxx11Ev
libixpdimm-cim.so.1:_ZN7monitor12EventMonitor37acknowledgePastHealthChangesForDeviceERKNS_10deviceInfoE
libixpdimm-cim.so.1:_ZN7monitor12EventMonitor39createEventForConfigGoalAppliedOnDeviceERKNSt7__cxx1112basic_stringIcSt11char_traitsIcESaIcEEE
libixpdimm-cim.so.1:_ZN7monitor12EventMonitor40acknowledgePlatformConfigEventsForDeviceERKNSt7__cxx1112basic_stringIcSt11char_traitsIcESaIcEEE
libixpdimm-cim.so.1:_ZN7monitor12EventMonitor4initEPFv17system_event_typeNSt7__cxx1112basic_stringIcSt11char_traitsIcESaIcEEES7_E
libixpdimm-cim.so.1:_ZN7monitor12EventMonitor4initEv
libixpdimm-cim.so.1:_ZN7monitor12EventMonitor7cleanupEv
libixpdimm-cim.so.1:_ZN7monitor12EventMonitor7monitorEv
libixpdimm-cim.so.1:_ZN7monitor12EventMonitorC1ERN4core10NvmLibraryE
libixpdimm-cim.so.1:_ZN7monitor12EventMonitorC2ERN4core10NvmLibraryE
libixpdimm-cim.so.1:_ZN7monitor12EventMonitorD0Ev
libixpdimm-cim.so.1:_ZN7monitor12EventMonitorD1Ev
libixpdimm-cim.so.1:_ZN7monitor12EventMonitorD2Ev
libixpdimm-cim.so.1:_ZN7monitor14NvmMonitorBase11getMonitorsERSt6vectorIPS0_SaIS2_EE
libixpdimm-cim.so.1:_ZN7monitor14NvmMonitorBase14deleteMonitorsERSt6vectorIPS0_SaIS2_EE
libixpdimm-cim.so.1:_ZN7monitor14NvmMonitorBase3logE17system_event_typeNSt7__cxx1112basic_stringIcSt11char_traitsIcESaIcEEES7_
libixpdimm-cim.so.1:_ZN7monitor14NvmMonitorBase5abortEv
libixpdimm-cim.so.1:_ZN7monitor14NvmMonitorBaseC1ERKNSt7__cxx1112basic_stringIcSt11char_traitsIcESaIcEEE
libixpdimm-cim.so.1:_ZN7monitor14NvmMonitorBaseC2ERKNSt7__cxx1112basic_stringIcSt11char_traitsIcESaIcEEE
libixpdimm-cim.so.1:_ZN7monitor14NvmMonitorBaseD0Ev
libixpdimm-cim.so.1:_ZN7monitor14NvmMonitorBaseD1Ev
libixpdimm-cim.so.1:_ZN7monitor14NvmMonitorBaseD2Ev
libixpdimm-cim.so.1:_ZN7monitor18PerformanceMonitor11getDimmListB5cxx11Ev
libixpdimm-cim.so.1:_ZN7monitor18PerformanceMonitor19trimPerformanceDataEv
libixpdimm-cim.so.1:_ZN7monitor18PerformanceMonitor24storeDimmPerformanceDataERKNSt7__cxx1112basic_stringIcSt11char_traitsIcESaIcEEER18device_performance
libixpdimm-cim.so.1:_ZN7monitor18PerformanceMonitor7monitorEv
libixpdimm-cim.so.1:_ZN7monitor18PerformanceMonitorC1Ev
libixpdimm-cim.so.1:_ZN7monitor18PerformanceMonitorC2Ev
libixpdimm-cim.so.1:_ZN7monitor18PerformanceMonitorD0Ev
libixpdimm-cim.so.1:_ZN7monitor18PerformanceMonitorD1Ev
libixpdimm-cim.so.1:_ZN7monitor18PerformanceMonitorD2Ev
libixpdimm-cim.so.1:_ZNK4wbem10mem_config13InterleaveSet11getSocketIdEv
libixpdimm-cim.so.1:_ZNK4wbem10mem_config13InterleaveSeteqES1_
libixpdimm-cim.so.1:_ZNK4wbem10mem_config13InterleaveSetltES1_
libixpdimm-cim.so.1:_ZNK4wbem10mem_config33MemoryConfigurationServiceFactory9uriToPathERKNSt7__cxx1112basic_stringIcSt11char_traitsIcESaIcEEES9_RS7_b
libixpdimm-cim.so.1:_ZNK4wbem13lib_interface6NvmApi10getDevicesEP16device_discoveryh
libixpdimm-cim.so.1:_ZNK4wbem13lib_interface6NvmApi10getDevicesERSt6vectorI16device_discoverySaIS3_EE
libixpdimm-cim.so.1:_ZNK4wbem13lib_interface6NvmApi11getHostNameB5cxx11Ev
libixpdimm-cim.so.1:_ZNK4wbem13lib_interface6NvmApi11getHostNameEPcm
libixpdimm-cim.so.1:_ZNK4wbem13lib_interface6NvmApi14getDeviceCountEv
libixpdimm-cim.so.1:_ZNK4wbem13lib_interface6NvmApi17getMemoryTopologyERSt6vectorI15memory_topologySaIS3_EE
libixpdimm-cim.so.1:_ZNK4wbem13lib_interface6NvmApi18getManageableDimmsERSt6vectorI16device_discoverySaIS3_EE
libixpdimm-cim.so.1:_ZNK4wbem13lib_interface6NvmApi20getConfigGoalForDimmERKNSt7__cxx1112basic_stringIcSt11char_traitsIcESaIcEEER11config_goal
libixpdimm-cim.so.1:_ZNK4wbem13lib_interface6NvmApi25getDeviceDiscoveryForDimmERKNSt7__cxx1112basic_stringIcSt11char_traitsIcESaIcEEER16device_discovery
libixpdimm-cim.so.1:_ZNK4wbem13lib_interface6NvmApi8getPoolsERSt6vectorI4poolSaIS3_EE
libixpdimm-cim.so.1:_ZNK4wbem7support25SupportDataServiceFactory11exportToUriENSt7__cxx1112basic_stringIcSt11char_traitsIcESaIcEEE
libixpdimm-cim.so.1:_ZNK4wbem7support25SupportDataServiceFactory6createENSt7__cxx1112basic_stringIcSt11char_traitsIcESaIcEEERKNS_9framework10ObjectPathE
libixpdimm-cim.so.1:_ZNK4wbem8software40NVDIMMSoftwareInstallationServiceFactory14examineFwImageERKNSt7__cxx1112basic_stringIcSt11char_traitsIcESaIcEEERS7_
libixpdimm-cim.so.1:_ZNK4wbem8software40NVDIMMSoftwareInstallationServiceFactory14examineFwImageERKNSt7__cxx1112basic_stringIcSt11char_traitsIcESaIcEEES9_RS7_
libixpdimm-cim.so.1:_ZNK4wbem8software40NVDIMMSoftwareInstallationServiceFactory15installFromPathERKNSt7__cxx1112basic_stringIcSt11char_traitsIcESaIcEEES9_b
libixpdimm-cim.so.1:_ZNK4wbem8software40NVDIMMSoftwareInstallationServiceFactory15installFromPathERKNSt7__cxx1112basic_stringIcSt11char_traitsIcESaIcEEEb
libixpdimm-cim.so.1:_ZNK4wbem9exception20NvmExceptionLibError11getLibErrorEv
libixpdimm-cim.so.1:_ZNK7monitor14NvmMonitorBase18getIntervalSecondsEv
libixpdimm-cim.so.1:_ZNK7monitor14NvmMonitorBase7getNameB5cxx11Ev
libixpdimm-cim.so.1:_ZNK7monitor14NvmMonitorBase9isEnabledEv
libixpdimm-cli.so.1:_Z10lib_unloadv
libixpdimm-cli.so.1:_Z18unRegisterFeaturesv
libixpdimm-cli.so.1:_Z24callRunDiagnosticServicePcSt6vectorItSaItEENSt7__cxx1112basic_stringIcSt11char_traitsIcESaIcEEE
libixpdimm-cli.so.1:_Z8lib_loadv
libixpdimm-cli.so.1:_ZN3cli6nvmcli11handleToUidERKjRNSt7__cxx1112basic_stringIcSt11char_traitsIcESaIcEEE
libixpdimm-cli.so.1:_ZN3cli6nvmcli11isStringHexERKNSt7__cxx1112basic_stringIcSt11char_traitsIcESaIcEEE
libixpdimm-cli.so.1:_ZN3cli6nvmcli11stringToIntERKNSt7__cxx1112basic_stringIcSt11char_traitsIcESaIcEEEPi
libixpdimm-cli.so.1:_ZN3cli6nvmcli13SensorFeature10showSensorERKNS_9framework13ParsedCommandE
libixpdimm-cli.so.1:_ZN3cli6nvmcli13SensorFeature12modifySensorERKNS_9framework13ParsedCommandE
libixpdimm-cli.so.1:_ZN3cli6nvmcli13SensorFeature16sensorToPropListEPNS_9framework18PropertyListResultENSt7__cxx1112basic_stringIcSt11char_traitsIcESaIcEEEPN4core6device6sensor6SensorESt6vectorISA_SaISA_EE
libixpdimm-cli.so.1:_ZN3cli6nvmcli13SensorFeature19formatThresholdListERN4wbem9framework8InstanceENSt7__cxx1112basic_stringIcSt11char_traitsIcESaIcEEE
libixpdimm-cli.so.1:_ZN3cli6nvmcli13SensorFeature20sensorNameToCategoryENSt7__cxx1112basic_stringIcSt11char_traitsIcESaIcEEE
libixpdimm-cli.so.1:_ZN3cli6nvmcli13SensorFeature23roundToNearestSixteenthERf
libixpdimm-cli.so.1:_ZN3cli6nvmcli13SensorFeature27getModifiedSensorAttributesERKNS_9framework13ParsedCommandEiRSt3mapINSt7__cxx1112basic_stringIcSt11char_traitsIcESaIcEEEN4wbem9framework9AttributeESt4lessISC_ESaISt4pairIKSC_SF_EEE
libixpdimm-cli.so.1:_ZN3cli6nvmcli13SensorFeature33addModifiedSensorEnabledAttributeERKNSt7__cxx1112basic_stringIcSt11char_traitsIcESaIcEEEbRSt3mapIS7_N4wbem9framework9AttributeESt4lessIS7_ESaISt4pairIS8_SD_EEE
libixpdimm-cli.so.1:_ZN3cli6nvmcli13SensorFeature35addModifiedSensorThresholdAttributeEiRKNSt7__cxx1112basic_stringIcSt11char_traitsIcESaIcEEEbRSt3mapIS7_N4wbem9framework9AttributeESt4lessIS7_ESaISt4pairIS8_SD_EEE
libixpdimm-cli.so.1:_ZN3cli6nvmcli13SensorFeature3runERKiRKNS_9framework13ParsedCommandE
libixpdimm-cli.so.1:_ZN3cli6nvmcli13SensorFeature8getPathsERSt6vectorINS_9framework11CommandSpecESaIS4_EE
libixpdimm-cli.so.1:_ZN3cli6nvmcli13SensorFeatureC1Ev
libixpdimm-cli.so.1:_ZN3cli6nvmcli13SensorFeatureC2Ev
libixpdimm-cli.so.1:_ZN3cli6nvmcli13SystemFeature10showSocketERKNS_9framework13ParsedCommandE
libixpdimm-cli.so.1:_ZN3cli6nvmcli13SystemFeature10showSystemERKNS_9framework13ParsedCommandE
libixpdimm-cli.so.1:_ZN3cli6nvmcli13SystemFeature12modifyDeviceERKNS_9framework13ParsedCommandE
libixpdimm-cli.so.1:_ZN3cli6nvmcli13SystemFeature12setFwLoggingERKNS_9framework13ParsedCommandE
libixpdimm-cli.so.1:_ZN3cli6nvmcli13SystemFeature12showTopologyERKNS_9framework13ParsedCommandE
libixpdimm-cli.so.1:_ZN3cli6nvmcli13SystemFeature15eraseDeviceDataERKNS_9framework13ParsedCommandE
libixpdimm-cli.so.1:_ZN3cli6nvmcli13SystemFeature15parsePassPhraseERKNS_9framework13ParsedCommandESt6vectorINSt7__cxx1112basic_stringIcSt11char_traitsIcESaIcEEESaISC_EERSC_
libixpdimm-cli.so.1:_ZN3cli6nvmcli13SystemFeature15readPassphrasesENSt7__cxx1112basic_stringIcSt11char_traitsIcESaIcEEEPS7_S8_
libixpdimm-cli.so.1:_ZN3cli6nvmcli13SystemFeature15setDimmProviderEPN4wbem14physical_asset13NVDIMMFactoryE
libixpdimm-cli.so.1:_ZN3cli6nvmcli13SystemFeature17generateJobFilterERKNS_9framework13ParsedCommandERSt6vectorINSt7__cxx1112basic_stringIcSt11char_traitsIcESaIcEEESaISC_EERS6_INS0_14instanceFilterESaISG_EE
libixpdimm-cli.so.1:_ZN3cli6nvmcli13SystemFeature18setFirstPassphraseEPNSt7__cxx1112basic_stringIcSt11char_traitsIcESaIcEEES7_
libixpdimm-cli.so.1:_ZN3cli6nvmcli13SystemFeature19generateErrorResultE11return_codeNSt7__cxx1112basic_stringIcSt11char_traitsIcESaIcEEESt6vectorIS8_SaIS8_EE
libixpdimm-cli.so.1:_ZN3cli6nvmcli13SystemFeature19showMemoryResourcesERKNS_9framework13ParsedCommandE
libixpdimm-cli.so.1:_ZN3cli6nvmcli13SystemFeature20changeDeviceSecurityERKNS_9framework13ParsedCommandE
libixpdimm-cli.so.1:_ZN3cli6nvmcli13SystemFeature20enableDeviceSecurityERKNS_9framework13ParsedCommandE
libixpdimm-cli.so.1:_ZN3cli6nvmcli13SystemFeature20logLevelStringToEnumENSt7__cxx1112basic_stringIcSt11char_traitsIcESaIcEEE
libixpdimm-cli.so.1:_ZN3cli6nvmcli13SystemFeature22changeDevicePassphraseERKNS_9framework13ParsedCommandE
libixpdimm-cli.so.1:_ZN3cli6nvmcli13SystemFeature22setDimmErasureProviderEPN4wbem7erasure21ErasureServiceFactoryE
libixpdimm-cli.so.1:_ZN3cli6nvmcli13SystemFeature22setDimmProviderAdapterEPNS0_19DimmProviderAdapterE
libixpdimm-cli.so.1:_ZN3cli6nvmcli13SystemFeature22showSystemCapabilitiesERKNS_9framework13ParsedCommandE
libixpdimm-cli.so.1:_ZN3cli6nvmcli13SystemFeature23getPassphrasePropertiesERKNS_9framework13ParsedCommandERKNSt7__cxx1112basic_stringIcSt11char_traitsIcESaIcEEERKSt6vectorISB_SaISB_EEPSB_RSB_SK_
libixpdimm-cli.so.1:_ZN3cli6nvmcli13SystemFeature24getPassphrasesFromStringENSt7__cxx1112basic_stringIcSt11char_traitsIcESaIcEEEPS7_S8_
libixpdimm-cli.so.1:_ZN3cli6nvmcli13SystemFeature29generateErrorResultFromStringENSt7__cxx1112basic_stringIcSt11char_traitsIcESaIcEEES7_St6vectorIS7_SaIS7_EE
libixpdimm-cli.so.1:_ZN3cli6nvmcli13SystemFeature3runERKiRKNS_9framework13ParsedCommandE
libixpdimm-cli.so.1:_ZN3cli6nvmcli13SystemFeature41getPassphrasePropertyValueFromCommandLineERKNSt7__cxx1112basic_stringIcSt11char_traitsIcESaIcEEERKNS_9framework13ParsedCommandES9_
libixpdimm-cli.so.1:_ZN3cli6nvmcli13SystemFeature45validateCommandLinePropertiesPassphraseFormatERKNS_9framework13ParsedCommandEb
libixpdimm-cli.so.1:_ZN3cli6nvmcli13SystemFeature57validateCommandLinePropertiesEmptyWhenUsingPassphraseFileERKNS_9framework13ParsedCommandE
libixpdimm-cli.so.1:_ZN3cli6nvmcli13SystemFeature8getPathsERSt6vectorINS_9framework11CommandSpecESaIS4_EE
libixpdimm-cli.so.1:_ZN3cli6nvmcli13SystemFeature9showDimmsERKNS_9framework13ParsedCommandE
libixpdimm-cli.so.1:_ZN3cli6nvmcli13SystemFeatureC1Ev
libixpdimm-cli.so.1:_ZN3cli6nvmcli13SystemFeatureC2Ev
libixpdimm-cli.so.1:_ZN3cli6nvmcli13SystemFeatureD0Ev
libixpdimm-cli.so.1:_ZN3cli6nvmcli13SystemFeatureD1Ev
libixpdimm-cli.so.1:_ZN3cli6nvmcli13SystemFeatureD2Ev
libixpdimm-cli.so.1:_ZN3cli6nvmcli14MemoryProperty13parseSettingsEv
libixpdimm-cli.so.1:_ZN3cli6nvmcli14MemoryProperty16setParsedCommandERKNS_9framework13ParsedCommandERKNSt7__cxx1112basic_stringIcSt11char_traitsIcESaIcEEESD_
libixpdimm-cli.so.1:_ZN3cli6nvmcli14MemoryProperty16tokenizeSettingsEv
libixpdimm-cli.so.1:_ZN3cli6nvmcli14MemoryProperty16validateSettingsEv
libixpdimm-cli.so.1:_ZN3cli6nvmcli14MemoryProperty36convertSettingStringToInterleaveSizeERKNSt7__cxx1112basic_stringIcSt11char_traitsIcESaIcEEER15interleave_size
libixpdimm-cli.so.1:_ZN3cli6nvmcli14MemoryPropertyC1ERKNS_9framework13ParsedCommandERKNSt7__cxx1112basic_stringIcSt11char_traitsIcESaIcEEESD_
libixpdimm-cli.so.1:_ZN3cli6nvmcli14MemoryPropertyC2ERKNS_9framework13ParsedCommandERKNSt7__cxx1112basic_stringIcSt11char_traitsIcESaIcEEESD_
libixpdimm-cli.so.1:_ZN3cli6nvmcli14ShowLogCommand13createResultsEv
libixpdimm-cli.so.1:_ZN3cli6nvmcli14ShowLogCommand15convertLoglevelB5cxx11E9log_level
libixpdimm-cli.so.1:_ZN3cli6nvmcli14ShowLogCommand15getTimeInFormatB5cxx11El
libixpdimm-cli.so.1:_ZN3cli6nvmcli14ShowLogCommand26parseLogCountPropertyValueEv
libixpdimm-cli.so.1:_ZN3cli6nvmcli14ShowLogCommand7executeERKNS_9framework13ParsedCommandE
libixpdimm-cli.so.1:_ZN3cli6nvmcli14ShowLogCommand8hasErrorEv
libixpdimm-cli.so.1:_ZN3cli6nvmcli14ShowLogCommandC1ERN4core4logs10LogServiceE
libixpdimm-cli.so.1:_ZN3cli6nvmcli14ShowLogCommandC2ERN4core4logs10LogServiceE
libixpdimm-cli.so.1:_ZN3cli6nvmcli14ShowLogCommandD0Ev
libixpdimm-cli.so.1:_ZN3cli6nvmcli14ShowLogCommandD1Ev
libixpdimm-cli.so.1:_ZN3cli6nvmcli14ShowLogCommandD2Ev
libixpdimm-cli.so.1:_ZN3cli6nvmcli14stringToReal32ERKNSt7__cxx1112basic_stringIcSt11char_traitsIcESaIcEEEPf
libixpdimm-cli.so.1:_ZN3cli6nvmcli14stringToUInt64ERKNSt7__cxx1112basic_stringIcSt11char_traitsIcESaIcEEE
libixpdimm-cli.so.1:_ZN3cli6nvmcli14uint64ToStringB5cxx11ERKy
libixpdimm-cli.so.1:_ZN3cli6nvmcli15ShowGoalCommand13ResultBuilder11buildResultEv
libixpdimm-cli.so.1:_ZN3cli6nvmcli15ShowGoalCommand13ResultBuilder16createGoalResultEv
libixpdimm-cli.so.1:_ZN3cli6nvmcli15ShowGoalCommand13ResultBuilder16setCapacityUnitsERKNSt7__cxx1112basic_stringIcSt11char_traitsIcESaIcEEE
libixpdimm-cli.so.1:_ZN3cli6nvmcli15ShowGoalCommand13ResultBuilder17setDisplayOptionsERKNS_9framework14DisplayOptionsE
libixpdimm-cli.so.1:_ZN3cli6nvmcli15ShowGoalCommand13ResultBuilder17setOutputTypeTextEv
libixpdimm-cli.so.1:_ZN3cli6nvmcli15ShowGoalCommand13ResultBuilder18getAppDirect1IndexB5cxx11ERN4core13configuration20MemoryAllocationGoalE
libixpdimm-cli.so.1:_ZN3cli6nvmcli15ShowGoalCommand13ResultBuilder18getAppDirect2IndexB5cxx11ERN4core13configuration20MemoryAllocationGoalE
libixpdimm-cli.so.1:_ZN3cli6nvmcli15ShowGoalCommand13ResultBuilder18goalHasBeenAppliedERN4core13configuration20MemoryAllocationGoalE
libixpdimm-cli.so.1:_ZN3cli6nvmcli15ShowGoalCommand13ResultBuilder18setOutputTypeTableEv
libixpdimm-cli.so.1:_ZN3cli6nvmcli15ShowGoalCommand13ResultBuilder19addGoalToListResultERN4core13configuration20MemoryAllocationGoalERNS_9framework16ObjectListResultE
libixpdimm-cli.so.1:_ZN3cli6nvmcli15ShowGoalCommand13ResultBuilder19convertBytesToUnitsB5cxx11Ey
libixpdimm-cli.so.1:_ZN3cli6nvmcli15ShowGoalCommand13ResultBuilder21getAppDirect1SettingsB5cxx11ERN4core13configuration20MemoryAllocationGoalE
libixpdimm-cli.so.1:_ZN3cli6nvmcli15ShowGoalCommand13ResultBuilder21getAppDirect2SettingsB5cxx11ERN4core13configuration20MemoryAllocationGoalE
libixpdimm-cli.so.1:_ZN3cli6nvmcli15ShowGoalCommand13ResultBuilder22displayOptionsAreValidEv
libixpdimm-cli.so.1:_ZN3cli6nvmcli15ShowGoalCommand13ResultBuilder22formatConfigGoalStatusB5cxx11E18config_goal_status
libixpdimm-cli.so.1:_ZN3cli6nvmcli15ShowGoalCommand13ResultBuilder23getActionRequiredEventsB5cxx11ERN4core13configuration20MemoryAllocationGoalE
libixpdimm-cli.so.1:_ZN3cli6nvmcli15ShowGoalCommand13ResultBuilder25propertyShouldBeDisplayedERNS_9framework19IPropertyDefinitionIN4core13configuration20MemoryAllocationGoalEEE
libixpdimm-cli.so.1:_ZN3cli6nvmcli15ShowGoalCommand13ResultBuilder26getFormattedInterleaveSizeB5cxx11E15interleave_size
libixpdimm-cli.so.1:_ZN3cli6nvmcli15ShowGoalCommand13ResultBuilder28getPropertyListResultForGoalERN4core13configuration20MemoryAllocationGoalE
libixpdimm-cli.so.1:_ZN3cli6nvmcli15ShowGoalCommand13ResultBuilder29getFormattedAppDirectSettingsB5cxx11Et15interleave_sizeS3_
libixpdimm-cli.so.1:_ZN3cli6nvmcli15ShowGoalCommand13ResultBuilder8setGoalsERKN4core13configuration30MemoryAllocationGoalCollectionE
libixpdimm-cli.so.1:_ZN3cli6nvmcli15ShowGoalCommand13ResultBuilder9getDimmIdB5cxx11ERN4core13configuration20MemoryAllocationGoalE
libixpdimm-cli.so.1:_ZN3cli6nvmcli15ShowGoalCommand13ResultBuilderC1Ev
libixpdimm-cli.so.1:_ZN3cli6nvmcli15ShowGoalCommand13ResultBuilderC2Ev
libixpdimm-cli.so.1:_ZN3cli6nvmcli15ShowGoalCommand13ResultBuilderD0Ev
libixpdimm-cli.so.1:_ZN3cli6nvmcli15ShowGoalCommand13ResultBuilderD1Ev
libixpdimm-cli.so.1:_ZN3cli6nvmcli15ShowGoalCommand13ResultBuilderD2Ev
libixpdimm-cli.so.1:_ZN3cli6nvmcli15ShowGoalCommand13filterDevicesEv
libixpdimm-cli.so.1:_ZN3cli6nvmcli15ShowGoalCommand14getCommandSpecEi
libixpdimm-cli.so.1:_ZN3cli6nvmcli15ShowGoalCommand15dimmIdsAreValidEv
libixpdimm-cli.so.1:_ZN3cli6nvmcli15ShowGoalCommand17socketIdsAreValidEv
libixpdimm-cli.so.1:_ZN3cli6nvmcli15ShowGoalCommand18populateAllDevicesEv
libixpdimm-cli.so.1:_ZN3cli6nvmcli15ShowGoalCommand18unitsOptionIsValidEv
libixpdimm-cli.so.1:_ZN3cli6nvmcli15ShowGoalCommand21initWithParsedCommandERKNS_9framework13ParsedCommandE
libixpdimm-cli.so.1:_ZN3cli6nvmcli15ShowGoalCommand21populateGoalForDeviceERN4core6device6DeviceE
libixpdimm-cli.so.1:_ZN3cli6nvmcli15ShowGoalCommand23setBuilderOutputOptionsEv
libixpdimm-cli.so.1:_ZN3cli6nvmcli15ShowGoalCommand31populateGoalsForFilteredDevicesEv
libixpdimm-cli.so.1:_ZN3cli6nvmcli15ShowGoalCommand7executeERKNS_9framework13ParsedCommandE
libixpdimm-cli.so.1:_ZN3cli6nvmcli15ShowGoalCommandC1ERN4core6device13DeviceServiceERNS2_13configuration27MemoryAllocationGoalServiceE
libixpdimm-cli.so.1:_ZN3cli6nvmcli15ShowGoalCommandC2ERN4core6device13DeviceServiceERNS2_13configuration27MemoryAllocationGoalServiceE
libixpdimm-cli.so.1:_ZN3cli6nvmcli15ShowGoalCommandD0Ev
libixpdimm-cli.so.1:_ZN3cli6nvmcli15ShowGoalCommandD1Ev
libixpdimm-cli.so.1:_ZN3cli6nvmcli15ShowGoalCommandD2Ev
libixpdimm-cli.so.1:_ZN3cli6nvmcli15filterInstancesERKSt6vectorIN4wbem9framework8InstanceESaIS4_EERKNSt7__cxx1112basic_stringIcSt11char_traitsIcESaIcEEERKS1_INS0_14instanceFilterESaISH_EERS6_b
libixpdimm-cli.so.1:_ZN3cli6nvmcli16NamespaceFeature10createGoalERKNS_9framework13ParsedCommandE
libixpdimm-cli.so.1:_ZN3cli6nvmcli16NamespaceFeature10dumpConfigERKNS_9framework13ParsedCommandE
libixpdimm-cli.so.1:_ZN3cli6nvmcli16NamespaceFeature12setWbemToCliEPNS0_9WbemToCliE
libixpdimm-cli.so.1:_ZN3cli6nvmcli16NamespaceFeature12validRequestERKSt6vectorIN4wbem9framework8InstanceESaIS5_EES9_
libixpdimm-cli.so.1:_ZN3cli6nvmcli16NamespaceFeature14showConfigGoalERKNS_9framework13ParsedCommandE
libixpdimm-cli.so.1:_ZN3cli6nvmcli16NamespaceFeature14showNamespacesERKNS_9framework13ParsedCommandE
libixpdimm-cli.so.1:_ZN3cli6nvmcli16NamespaceFeature15createNamespaceERKNS_9framework13ParsedCommandE
libixpdimm-cli.so.1:_ZN3cli6nvmcli16NamespaceFeature15modifyNamespaceENSt7__cxx1112basic_stringIcSt11char_traitsIcESaIcEEE
libixpdimm-cli.so.1:_ZN3cli6nvmcli16NamespaceFeature15modifyNamespaceERKNS_9framework13ParsedCommandE
libixpdimm-cli.so.1:_ZN3cli6nvmcli16NamespaceFeature16deleteConfigGoalERKNS_9framework13ParsedCommandE
libixpdimm-cli.so.1:_ZN3cli6nvmcli16NamespaceFeature16deleteNamespacesERKNS_9framework13ParsedCommandE
libixpdimm-cli.so.1:_ZN3cli6nvmcli16NamespaceFeature17setNsViewProviderEPN4wbem11pmem_config20NamespaceViewFactoryE
libixpdimm-cli.so.1:_ZN3cli6nvmcli16NamespaceFeature17setPmPoolProviderEPN4wbem11pmem_config27PersistentMemoryPoolFactoryE
libixpdimm-cli.so.1:_ZN3cli6nvmcli16NamespaceFeature18generatePoolFilterERKNS_9framework13ParsedCommandERSt6vectorINSt7__cxx1112basic_stringIcSt11char_traitsIcESaIcEEESaISC_EERS6_INS0_14instanceFilterESaISG_EE
libixpdimm-cli.so.1:_ZN3cli6nvmcli16NamespaceFeature19isBlockCountAlignedENSt7__cxx1112basic_stringIcSt11char_traitsIcESaIcEEE
libixpdimm-cli.so.1:_ZN3cli6nvmcli16NamespaceFeature19parseNsFriendlyNameERKNS_9framework13ParsedCommandE
libixpdimm-cli.so.1:_ZN3cli6nvmcli16NamespaceFeature19setPoolViewProviderEPN4wbem10mem_config15PoolViewFactoryE
libixpdimm-cli.so.1:_ZN3cli6nvmcli16NamespaceFeature19undoModifyNamespaceENSt7__cxx1112basic_stringIcSt11char_traitsIcESaIcEEERK17namespace_detailsi
libixpdimm-cli.so.1:_ZN3cli6nvmcli16NamespaceFeature19wbemDeleteNamespaceERKNSt7__cxx1112basic_stringIcSt11char_traitsIcESaIcEEE
libixpdimm-cli.so.1:_ZN3cli6nvmcli16NamespaceFeature20parseCreateNsEnabledERKNS_9framework13ParsedCommandE
libixpdimm-cli.so.1:_ZN3cli6nvmcli16NamespaceFeature21atomicModifyNamespaceENSt7__cxx1112basic_stringIcSt11char_traitsIcESaIcEEERK17namespace_details
libixpdimm-cli.so.1:_ZN3cli6nvmcli16NamespaceFeature21getCreateNsBlockCountEv
libixpdimm-cli.so.1:_ZN3cli6nvmcli16NamespaceFeature21parseCreateNsCapacityERKNS_9framework13ParsedCommandE
libixpdimm-cli.so.1:_ZN3cli6nvmcli16NamespaceFeature21parseCreateNsOptimizeERKNS_9framework13ParsedCommandE
libixpdimm-cli.so.1:_ZN3cli6nvmcli16NamespaceFeature21parseModifyNsCapacityERKNS_9framework13ParsedCommandE
libixpdimm-cli.so.1:_ZN3cli6nvmcli16NamespaceFeature22nsNvmExceptionToResultERN4wbem9framework9ExceptionENSt7__cxx1112basic_stringIcSt11char_traitsIcESaIcEEE
libixpdimm-cli.so.1:_ZN3cli6nvmcli16NamespaceFeature22optimizePropertyExistsEv
libixpdimm-cli.so.1:_ZN3cli6nvmcli16NamespaceFeature23generateNamespaceFilterERKNS_9framework13ParsedCommandERSt6vectorINSt7__cxx1112basic_stringIcSt11char_traitsIcESaIcEEESaISC_EERS6_INS0_14instanceFilterESaISG_EE
libixpdimm-cli.so.1:_ZN3cli6nvmcli16NamespaceFeature23parseCreateNsEncryptionERKNS_9framework13ParsedCommandE
libixpdimm-cli.so.1:_ZN3cli6nvmcli16NamespaceFeature23setCapabilitiesProviderEPN4wbem11pmem_config35PersistentMemoryCapabilitiesFactoryE
libixpdimm-cli.so.1:_ZN3cli6nvmcli16NamespaceFeature25adjustNamespaceBlockCountEy
libixpdimm-cli.so.1:_ZN3cli6nvmcli16NamespaceFeature25parseCreateNsEraseCapableERKNS_9framework13ParsedCommandE
libixpdimm-cli.so.1:_ZN3cli6nvmcli16NamespaceFeature25parsePersistentMemoryTypeERKNS_9framework13ParsedCommandE
libixpdimm-cli.so.1:_ZN3cli6nvmcli16NamespaceFeature25wbemGetSupportedSizeRangeERKNSt7__cxx1112basic_stringIcSt11char_traitsIcESaIcEEERySA_SA_SA_SA_SA_
libixpdimm-cli.so.1:_ZN3cli6nvmcli16NamespaceFeature27populateNamespaceAttributesERSt6vectorINSt7__cxx1112basic_stringIcSt11char_traitsIcESaIcEEESaIS8_EERKNS_9framework13ParsedCommandE
libixpdimm-cli.so.1:_ZN3cli6nvmcli16NamespaceFeature29convertEnabledStateAttributesERN4wbem9framework8InstanceE
libixpdimm-cli.so.1:_ZN3cli6nvmcli16NamespaceFeature29generateNamespaceHealthFilterERKNS_9framework13ParsedCommandERSt6vectorINSt7__cxx1112basic_stringIcSt11char_traitsIcESaIcEEESaISC_EERS6_INS0_14instanceFilterESaISG_EE
libixpdimm-cli.so.1:_ZN3cli6nvmcli16NamespaceFeature30confirmNamespaceBlockSizeUsageEv
libixpdimm-cli.so.1:_ZN3cli6nvmcli16NamespaceFeature30dumpConfigNvmExceptionToResultERN4wbem9framework9ExceptionE
libixpdimm-cli.so.1:_ZN3cli6nvmcli16NamespaceFeature31generateBlockSizeAttributeValueERN4wbem9framework8InstanceE
libixpdimm-cli.so.1:_ZN3cli6nvmcli16NamespaceFeature32isNamespaceModificationSupportedERK17namespace_details
libixpdimm-cli.so.1:_ZN3cli6nvmcli16NamespaceFeature33parseCreateNsMemoryPageAllocationERKNS_9framework13ParsedCommandE
libixpdimm-cli.so.1:_ZN3cli6nvmcli16NamespaceFeature34setPersistentMemoryServiceProviderEPN4wbem11pmem_config30PersistentMemoryServiceFactoryE
libixpdimm-cli.so.1:_ZN3cli6nvmcli16NamespaceFeature35convertCapacityAndAddIsMirroredTextERN4wbem9framework8InstanceENSt7__cxx1112basic_stringIcSt11char_traitsIcESaIcEEE
libixpdimm-cli.so.1:_ZN3cli6nvmcli16NamespaceFeature36setPersistentMemoryNamespaceProviderEPN4wbem11pmem_config32PersistentMemoryNamespaceFactoryE
libixpdimm-cli.so.1:_ZN3cli6nvmcli16NamespaceFeature38convertActionRequiredEventsToNAIfEmptyERN4wbem9framework8InstanceE
libixpdimm-cli.so.1:_ZN3cli6nvmcli16NamespaceFeature39parseMemoryPageAllocationForAppDirectNSERKNSt7__cxx1112basic_stringIcSt11char_traitsIcESaIcEEE
libixpdimm-cli.so.1:_ZN3cli6nvmcli16NamespaceFeature3runERKiRKNS_9framework13ParsedCommandE
libixpdimm-cli.so.1:_ZN3cli6nvmcli16NamespaceFeature40namespaceCapacityModificationIsSupportedERK17namespace_details
libixpdimm-cli.so.1:_ZN3cli6nvmcli16NamespaceFeature8getPathsERSt6vectorINS_9framework11CommandSpecESaIS4_EE
libixpdimm-cli.so.1:_ZN3cli6nvmcli16NamespaceFeature8loadGoalERKNS_9framework13ParsedCommandE
libixpdimm-cli.so.1:_ZN3cli6nvmcli16NamespaceFeature9showPoolsERKNS_9framework13ParsedCommandE
libixpdimm-cli.so.1:_ZN3cli6nvmcli16NamespaceFeatureC1Ev
libixpdimm-cli.so.1:_ZN3cli6nvmcli16NamespaceFeatureC2Ev
libixpdimm-cli.so.1:_ZN3cli6nvmcli16NamespaceFeatureD0Ev
libixpdimm-cli.so.1:_ZN3cli6nvmcli16NamespaceFeatureD1Ev
libixpdimm-cli.so.1:_ZN3cli6nvmcli16NamespaceFeatureD2Ev
libixpdimm-cli.so.1:_ZN3cli6nvmcli16SimulatorFeature3runERKiRKNS_9framework13ParsedCommandE
libixpdimm-cli.so.1:_ZN3cli6nvmcli16SimulatorFeature8getPathsERSt6vectorINS_9framework11CommandSpecESaIS4_EE
libixpdimm-cli.so.1:_ZN3cli6nvmcli16SimulatorFeatureC1Ev
libixpdimm-cli.so.1:_ZN3cli6nvmcli16SimulatorFeatureC2Ev
libixpdimm-cli.so.1:_ZN3cli6nvmcli16getUidFromTargetENSt7__cxx1112basic_stringIcSt11char_traitsIcESaIcEEE
libixpdimm-cli.so.1:_ZN3cli6nvmcli17AttributeToStringB5cxx11ERKN4wbem9framework9AttributeE
libixpdimm-cli.so.1:_ZN3cli6nvmcli17CreateGoalCommand10UserPrompt24getPromptStringForLayoutERKN4core16memory_allocator22MemoryAllocationLayoutENSt7__cxx1112basic_stringIcSt11char_traitsIcESaIcEEE
libixpdimm-cli.so.1:_ZN3cli6nvmcli17CreateGoalCommand10UserPrompt25getStringForLayoutWarningB5cxx11EN4core16memory_allocator17LayoutWarningCodeE
libixpdimm-cli.so.1:_ZN3cli6nvmcli17CreateGoalCommand10UserPrompt28getLayoutGoalForConfirmationERKN4core16memory_allocator22MemoryAllocationLayoutENSt7__cxx1112basic_stringIcSt11char_traitsIcESaIcEEE
libixpdimm-cli.so.1:_ZN3cli6nvmcli17CreateGoalCommand10UserPrompt31promptUserConfirmationForLayoutERKN4core16memory_allocator22MemoryAllocationLayoutENSt7__cxx1112basic_stringIcSt11char_traitsIcESaIcEEE
libixpdimm-cli.so.1:_ZN3cli6nvmcli17CreateGoalCommand10UserPrompt32getLayoutWarningsForConfirmationB5cxx11ERKN4core16memory_allocator22MemoryAllocationLayoutE
libixpdimm-cli.so.1:_ZN3cli6nvmcli17CreateGoalCommand10UserPromptC1ERKNS_9framework11YesNoPromptERKNS1_15ShowGoalAdapterE
libixpdimm-cli.so.1:_ZN3cli6nvmcli17CreateGoalCommand10UserPromptC2ERKNS_9framework11YesNoPromptERKNS1_15ShowGoalAdapterE
libixpdimm-cli.so.1:_ZN3cli6nvmcli17CreateGoalCommand14NoChangeResultC1Ev
libixpdimm-cli.so.1:_ZN3cli6nvmcli17CreateGoalCommand14NoChangeResultC2Ev
libixpdimm-cli.so.1:_ZN3cli6nvmcli17CreateGoalCommand14getCommandSpecEi
libixpdimm-cli.so.1:_ZN3cli6nvmcli17CreateGoalCommand19setupRequestBuilderEv
libixpdimm-cli.so.1:_ZN3cli6nvmcli17CreateGoalCommand25userReallyLikesThisLayoutERKN4core16memory_allocator22MemoryAllocationLayoutENSt7__cxx1112basic_stringIcSt11char_traitsIcESaIcEEE
libixpdimm-cli.so.1:_ZN3cli6nvmcli17CreateGoalCommand6Parser10getSocketsEv
libixpdimm-cli.so.1:_ZN3cli6nvmcli17CreateGoalCommand6Parser11getReservedEv
libixpdimm-cli.so.1:_ZN3cli6nvmcli17CreateGoalCommand6Parser13getMemoryModeEv
libixpdimm-cli.so.1:_ZN3cli6nvmcli17CreateGoalCommand6Parser15parseTargetDimmEv
libixpdimm-cli.so.1:_ZN3cli6nvmcli17CreateGoalCommand6Parser16parseOptionForceEv
libixpdimm-cli.so.1:_ZN3cli6nvmcli17CreateGoalCommand6Parser16parseOptionUnitsEv
libixpdimm-cli.so.1:_ZN3cli6nvmcli17CreateGoalCommand6Parser17isPmTypeAppDirectEv
libixpdimm-cli.so.1:_ZN3cli6nvmcli17CreateGoalCommand6Parser17parseTargetSocketEv
libixpdimm-cli.so.1:_ZN3cli6nvmcli17CreateGoalCommand6Parser19parsePropertyConfigEv
libixpdimm-cli.so.1:_ZN3cli6nvmcli17CreateGoalCommand6Parser19parsePropertyPmTypeEv
libixpdimm-cli.so.1:_ZN3cli6nvmcli17CreateGoalCommand6Parser19verifySecurityStateEv
libixpdimm-cli.so.1:_ZN3cli6nvmcli17CreateGoalCommand6Parser21parsePropertyReservedEv
libixpdimm-cli.so.1:_ZN3cli6nvmcli17CreateGoalCommand6Parser22getNamespaceLabelMajorEv
libixpdimm-cli.so.1:_ZN3cli6nvmcli17CreateGoalCommand6Parser22getNamespaceLabelMinorEv
libixpdimm-cli.so.1:_ZN3cli6nvmcli17CreateGoalCommand6Parser23parsePropertyMemoryModeEv
libixpdimm-cli.so.1:_ZN3cli6nvmcli17CreateGoalCommand6Parser31isPmTypeAppDirectNotInterleavedEv
libixpdimm-cli.so.1:_ZN3cli6nvmcli17CreateGoalCommand6Parser34parsePropertyNamespaceLabelVersionEv
libixpdimm-cli.so.1:_ZN3cli6nvmcli17CreateGoalCommand6Parser5parseERKNS_9framework13ParsedCommandE
libixpdimm-cli.so.1:_ZN3cli6nvmcli17CreateGoalCommand6Parser7isForceEv
libixpdimm-cli.so.1:_ZN3cli6nvmcli17CreateGoalCommand6Parser8getDimmsB5cxx11Ev
libixpdimm-cli.so.1:_ZN3cli6nvmcli17CreateGoalCommand6Parser8getUnitsB5cxx11Ev
libixpdimm-cli.so.1:_ZN3cli6nvmcli17CreateGoalCommand6Parser8hasErrorEv
libixpdimm-cli.so.1:_ZN3cli6nvmcli17CreateGoalCommand6Parser9getConfigB5cxx11Ev
libixpdimm-cli.so.1:_ZN3cli6nvmcli17CreateGoalCommand6ParserC1Ev
libixpdimm-cli.so.1:_ZN3cli6nvmcli17CreateGoalCommand6ParserC2Ev
libixpdimm-cli.so.1:_ZN3cli6nvmcli17CreateGoalCommand7executeERKNS_9framework13ParsedCommandE
libixpdimm-cli.so.1:_ZN3cli6nvmcli17CreateGoalCommandC1ERN4core16memory_allocator15MemoryAllocatorERNS3_30MemoryAllocationRequestBuilderERNS1_10UserPromptERKNS1_15ShowGoalAdapterE
libixpdimm-cli.so.1:_ZN3cli6nvmcli17CreateGoalCommandC2ERN4core16memory_allocator15MemoryAllocatorERNS3_30MemoryAllocationRequestBuilderERNS1_10UserPromptERKNS1_15ShowGoalAdapterE
libixpdimm-cli.so.1:_ZN3cli6nvmcli17GetAttributeNamesERKSt3mapINSt7__cxx1112basic_stringIcSt11char_traitsIcESaIcEEES7_St4lessIS7_ESaISt4pairIKS7_S7_EEE
libixpdimm-cli.so.1:_ZN3cli6nvmcli17GetAttributeNamesERKSt3mapINSt7__cxx1112basic_stringIcSt11char_traitsIcESaIcEEES7_St4lessIS7_ESaISt4pairIKS7_S7_EEESt6vectorIS7_SaIS7_EE
libixpdimm-cli.so.1:_ZN3cli6nvmcli17GetAttributeNamesERKSt3mapINSt7__cxx1112basic_stringIcSt11char_traitsIcESaIcEEES7_St4lessIS7_ESaISt4pairIKS7_S7_EEESt6vectorIS7_SaIS7_EESJ_
libixpdimm-cli.so.1:_ZN3cli6nvmcli17ShowDeviceCommand12convertSpeedB5cxx11Ey
libixpdimm-cli.so.1:_ZN3cli6nvmcli17ShowDeviceCommand12convertWidthB5cxx11Ey
libixpdimm-cli.so.1:_ZN3cli6nvmcli17ShowDeviceCommand13convertToDateB5cxx11Ey
libixpdimm-cli.so.1:_ZN3cli6nvmcli17ShowDeviceCommand13createResultsEv
libixpdimm-cli.so.1:_ZN3cli6nvmcli17ShowDeviceCommand15convertCapacityB5cxx11Ey
libixpdimm-cli.so.1:_ZN3cli6nvmcli17ShowDeviceCommand15dimmIdsAreValidEv
libixpdimm-cli.so.1:_ZN3cli6nvmcli17ShowDeviceCommand16convertArsStatusB5cxx11E17device_ars_status
libixpdimm-cli.so.1:_ZN3cli6nvmcli17ShowDeviceCommand16convertFwVersionENSt7__cxx1112basic_stringIcSt11char_traitsIcESaIcEEE
libixpdimm-cli.so.1:_ZN3cli6nvmcli17ShowDeviceCommand16convertLockStateB5cxx11E10lock_state
libixpdimm-cli.so.1:_ZN3cli6nvmcli17ShowDeviceCommand17convertBootStatusB5cxx11Et
libixpdimm-cli.so.1:_ZN3cli6nvmcli17ShowDeviceCommand17convertFormFactorB5cxx11E18device_form_factor
libixpdimm-cli.so.1:_ZN3cli6nvmcli17ShowDeviceCommand17convertFwLogLevelB5cxx11E12fw_log_level
libixpdimm-cli.so.1:_ZN3cli6nvmcli17ShowDeviceCommand17convertMemoryTypeB5cxx11E11memory_type
libixpdimm-cli.so.1:_ZN3cli6nvmcli17ShowDeviceCommand17convertPowerLimitB5cxx11Eh
libixpdimm-cli.so.1:_ZN3cli6nvmcli17ShowDeviceCommand17socketIdsAreValidEv
libixpdimm-cli.so.1:_ZN3cli6nvmcli17ShowDeviceCommand18convertHealthStateB5cxx11Et
libixpdimm-cli.so.1:_ZN3cli6nvmcli17ShowDeviceCommand18convertMemoryModesB5cxx11Et
libixpdimm-cli.so.1:_ZN3cli6nvmcli17ShowDeviceCommand18convertPowerBudgetB5cxx11Et
libixpdimm-cli.so.1:_ZN3cli6nvmcli17ShowDeviceCommand18unitsOptionIsValidEv
libixpdimm-cli.so.1:_ZN3cli6nvmcli17ShowDeviceCommand19convertConfigStatusB5cxx11E13config_status
libixpdimm-cli.so.1:_ZN3cli6nvmcli17ShowDeviceCommand19getManufacturingLocB5cxx11ERN4core6device6DeviceE
libixpdimm-cli.so.1:_ZN3cli6nvmcli17ShowDeviceCommand19isPropertyDisplayedERNS_9framework19IPropertyDefinitionIN4core6device6DeviceEEE
libixpdimm-cli.so.1:_ZN3cli6nvmcli17ShowDeviceCommand20getManufacturingDateB5cxx11ERN4core6device6DeviceE
libixpdimm-cli.so.1:_ZN3cli6nvmcli17ShowDeviceCommand21convertSanitizeStatusB5cxx11E22device_sanitize_status
libixpdimm-cli.so.1:_ZN3cli6nvmcli17ShowDeviceCommand22displayOptionsAreValidEv
libixpdimm-cli.so.1:_ZN3cli6nvmcli17ShowDeviceCommand22filterDevicesOnDimmIdsEv
libixpdimm-cli.so.1:_ZN3cli6nvmcli17ShowDeviceCommand23byteSwapandConverttoHexB5cxx11Et
libixpdimm-cli.so.1:_ZN3cli6nvmcli17ShowDeviceCommand23getActionRequiredEventsB5cxx11ERN4core6device6DeviceE
libixpdimm-cli.so.1:_ZN3cli6nvmcli17ShowDeviceCommand24filterDevicesOnSocketIdsEv
libixpdimm-cli.so.1:_ZN3cli6nvmcli17ShowDeviceCommand25convertLastShutdownStatusB5cxx11Et
libixpdimm-cli.so.1:_ZN3cli6nvmcli17ShowDeviceCommand25convertManageabilityStateB5cxx11E19manageability_state
libixpdimm-cli.so.1:_ZN3cli6nvmcli17ShowDeviceCommand26convertInterfaceFormatCodeB5cxx11Et
libixpdimm-cli.so.1:_ZN3cli6nvmcli17ShowDeviceCommand27convertSecurityCapabilitiesB5cxx11Et
libixpdimm-cli.so.1:_ZN3cli6nvmcli17ShowDeviceCommand36getJedecStringForInterfaceFormatCodeB5cxx11Et
libixpdimm-cli.so.1:_ZN3cli6nvmcli17ShowDeviceCommand5toHexB5cxx11Et
libixpdimm-cli.so.1:_ZN3cli6nvmcli17ShowDeviceCommand7executeERKNS_9framework13ParsedCommandE
libixpdimm-cli.so.1:_ZN3cli6nvmcli17ShowDeviceCommandC1ERN4core6device13DeviceServiceE
libixpdimm-cli.so.1:_ZN3cli6nvmcli17ShowDeviceCommandC2ERN4core6device13DeviceServiceE
libixpdimm-cli.so.1:_ZN3cli6nvmcli17ShowSocketCommand11getSocketIdB5cxx11ERN4core6system12SystemSocketE
libixpdimm-cli.so.1:_ZN3cli6nvmcli17ShowSocketCommand13createResultsEv
libixpdimm-cli.so.1:_ZN3cli6nvmcli17ShowSocketCommand13getSocketTypeB5cxx11ERN4core6system12SystemSocketE
libixpdimm-cli.so.1:_ZN3cli6nvmcli17ShowSocketCommand13validateInputEv
libixpdimm-cli.so.1:_ZN3cli6nvmcli17ShowSocketCommand15getSocketFamilyB5cxx11ERN4core6system12SystemSocketE
libixpdimm-cli.so.1:_ZN3cli6nvmcli17ShowSocketCommand18unitsOptionIsValidEv
libixpdimm-cli.so.1:_ZN3cli6nvmcli17ShowSocketCommand19isPropertyDisplayedERNS_9framework19IPropertyDefinitionIN4core6system12SystemSocketEEE
libixpdimm-cli.so.1:_ZN3cli6nvmcli17ShowSocketCommand20getMappedMemoryLimitB5cxx11ERN4core6system12SystemSocketE
libixpdimm-cli.so.1:_ZN3cli6nvmcli17ShowSocketCommand20getTotalMappedMemoryB5cxx11ERN4core6system12SystemSocketE
libixpdimm-cli.so.1:_ZN3cli6nvmcli17ShowSocketCommand21getSocketManufacturerB5cxx11ERN4core6system12SystemSocketE
libixpdimm-cli.so.1:_ZN3cli6nvmcli17ShowSocketCommand22displayOptionsAreValidEv
libixpdimm-cli.so.1:_ZN3cli6nvmcli17ShowSocketCommand7executeERKNS_9framework13ParsedCommandE
libixpdimm-cli.so.1:_ZN3cli6nvmcli17ShowSocketCommandC1ERN4core6system13SystemServiceE
libixpdimm-cli.so.1:_ZN3cli6nvmcli17ShowSocketCommandC2ERN4core6system13SystemServiceE
libixpdimm-cli.so.1:_ZN3cli6nvmcli17ValidationFeature11injectErrorERKNS_9framework13ParsedCommandE
libixpdimm-cli.so.1:_ZN3cli6nvmcli17ValidationFeature12inject_errorERNSt7__cxx1112basic_stringIcSt11char_traitsIcESaIcEEEN9__gnu_cxx17__normal_iteratorIPS7_St6vectorIS7_SaIS7_EEEERNS_9framework16SimpleListResultE
libixpdimm-cli.so.1:_ZN3cli6nvmcli17ValidationFeature15checkClearStateEv
libixpdimm-cli.so.1:_ZN3cli6nvmcli17ValidationFeature18parseClearPropertyERKNS_9framework13ParsedCommandE
libixpdimm-cli.so.1:_ZN3cli6nvmcli17ValidationFeature19parsePoisonPropertyERKNS_9framework13ParsedCommandE
libixpdimm-cli.so.1:_ZN3cli6nvmcli17ValidationFeature19verifyPropertyCountERKNS_9framework13ParsedCommandE
libixpdimm-cli.so.1:_ZN3cli6nvmcli17ValidationFeature20clear_injected_errorERNSt7__cxx1112basic_stringIcSt11char_traitsIcESaIcEEEN9__gnu_cxx17__normal_iteratorIPS7_St6vectorIS7_SaIS7_EEEERNS_9framework16SimpleListResultE
libixpdimm-cli.so.1:_ZN3cli6nvmcli17ValidationFeature23parseDieSparingPropertyERKNS_9framework13ParsedCommandE
libixpdimm-cli.so.1:_ZN3cli6nvmcli17ValidationFeature23parsePoisonTypePropertyERKNS_9framework13ParsedCommandE
libixpdimm-cli.so.1:_ZN3cli6nvmcli17ValidationFeature24getInjectErrorAttributesERKNS_9framework13ParsedCommandE
libixpdimm-cli.so.1:_ZN3cli6nvmcli17ValidationFeature24parseTemperaturePropertyERKNS_9framework13ParsedCommandE
libixpdimm-cli.so.1:_ZN3cli6nvmcli17ValidationFeature26parseDirtyShutdownPropertyERKNS_9framework13ParsedCommandE
libixpdimm-cli.so.1:_ZN3cli6nvmcli17ValidationFeature26parseSpareCapacityPropertyERKNS_9framework13ParsedCommandE
libixpdimm-cli.so.1:_ZN3cli6nvmcli17ValidationFeature27get_poison_type_from_stringENSt7__cxx1112basic_stringIcSt11char_traitsIcESaIcEEERb
libixpdimm-cli.so.1:_ZN3cli6nvmcli17ValidationFeature28parseFatalMediaErrorPropertyERKNS_9framework13ParsedCommandE
libixpdimm-cli.so.1:_ZN3cli6nvmcli17ValidationFeature28verifySWTriggerPropertyValueERKNSt7__cxx1112basic_stringIcSt11char_traitsIcESaIcEEERS7_
libixpdimm-cli.so.1:_ZN3cli6nvmcli17ValidationFeature32verifySpareCapacityPropertyValueERKNSt7__cxx1112basic_stringIcSt11char_traitsIcESaIcEEE
libixpdimm-cli.so.1:_ZN3cli6nvmcli17ValidationFeature36errorIfMoreThanOnePropertyIsModifiedEv
libixpdimm-cli.so.1:_ZN3cli6nvmcli17ValidationFeature3runERKiRKNS_9framework13ParsedCommandE
libixpdimm-cli.so.1:_ZN3cli6nvmcli17ValidationFeature8getPathsERSt6vectorINS_9framework11CommandSpecESaIS4_EE
libixpdimm-cli.so.1:_ZN3cli6nvmcli17ValidationFeatureC1Ev
libixpdimm-cli.so.1:_ZN3cli6nvmcli17ValidationFeatureC2Ev
libixpdimm-cli.so.1:_ZN3cli6nvmcli17VerboseController10getVerboseEv
libixpdimm-cli.so.1:_ZN3cli6nvmcli17VerboseController10setVerboseEb
libixpdimm-cli.so.1:_ZN3cli6nvmcli17VerboseController13enableVerboseEv
libixpdimm-cli.so.1:_ZN3cli6nvmcli17VerboseController14disableVerboseEv
libixpdimm-cli.so.1:_ZN3cli6nvmcli17VerboseController14get_print_maskEv
libixpdimm-cli.so.1:_ZN3cli6nvmcli17VerboseController14set_print_maskEi
libixpdimm-cli.so.1:_ZN3cli6nvmcli17VerboseControllerC1Ev
libixpdimm-cli.so.1:_ZN3cli6nvmcli17VerboseControllerC2Ev
libixpdimm-cli.so.1:_ZN3cli6nvmcli17VerboseControllerD0Ev
libixpdimm-cli.so.1:_ZN3cli6nvmcli17VerboseControllerD1Ev
libixpdimm-cli.so.1:_ZN3cli6nvmcli17VerboseControllerD2Ev
libixpdimm-cli.so.1:_ZN3cli6nvmcli17uint64ToHexStringB5cxx11ERKy
libixpdimm-cli.so.1:_ZN3cli6nvmcli18RenameAttributeKeyERSt6vectorIN4wbem9framework8InstanceESaIS4_EENSt7__cxx1112basic_stringIcSt11char_traitsIcESaIcEEESD_
libixpdimm-cli.so.1:_ZN3cli6nvmcli18RenameAttributeKeyERSt6vectorIN4wbem9framework8InstanceESaIS4_EERS1_INSt7__cxx1112basic_stringIcSt11char_traitsIcESaIcEEESaISD_EESD_SD_
libixpdimm-cli.so.1:_ZN3cli6nvmcli18RenameAttributeKeyERSt6vectorINSt7__cxx1112basic_stringIcSt11char_traitsIcESaIcEEESaIS7_EES7_S7_
libixpdimm-cli.so.1:_ZN3cli6nvmcli18ShowVersionCommand12createResultEv
libixpdimm-cli.so.1:_ZN3cli6nvmcli18ShowVersionCommand15getErrorMessageB5cxx11Ei
libixpdimm-cli.so.1:_ZN3cli6nvmcli18ShowVersionCommand18getResultErrorCodeEv
libixpdimm-cli.so.1:_ZN3cli6nvmcli18ShowVersionCommand20createVersionStringsEv
libixpdimm-cli.so.1:_ZN3cli6nvmcli18ShowVersionCommand24getBadDriverErrorMessageB5cxx11Ev
libixpdimm-cli.so.1:_ZN3cli6nvmcli18ShowVersionCommand41createDriverVersionStringFromSoftwareInfoEv
libixpdimm-cli.so.1:_ZN3cli6nvmcli18ShowVersionCommand7executeERKNS_9framework13ParsedCommandE
libixpdimm-cli.so.1:_ZN3cli6nvmcli18ShowVersionCommandC1ERN4core6system13SystemServiceE
libixpdimm-cli.so.1:_ZN3cli6nvmcli18ShowVersionCommandC2ERN4core6system13SystemServiceE
libixpdimm-cli.so.1:_ZN3cli6nvmcli18ShowVersionCommandD0Ev
libixpdimm-cli.so.1:_ZN3cli6nvmcli18ShowVersionCommandD1Ev
libixpdimm-cli.so.1:_ZN3cli6nvmcli18ShowVersionCommandD2Ev
libixpdimm-cli.so.1:_ZN3cli6nvmcli18VerboseFeatureBase13enableVerboseERKNS_9framework13ParsedCommandE
libixpdimm-cli.so.1:_ZN3cli6nvmcli18VerboseFeatureBase14disableVerboseERKNS_9framework13ParsedCommandE
libixpdimm-cli.so.1:_ZN3cli6nvmcli18VerboseFeatureBase20setVerboseControllerEPNS0_17VerboseControllerE
libixpdimm-cli.so.1:_ZN3cli6nvmcli18VerboseFeatureBaseC1Ev
libixpdimm-cli.so.1:_ZN3cli6nvmcli18VerboseFeatureBaseC2Ev
libixpdimm-cli.so.1:_ZN3cli6nvmcli18VerboseFeatureBaseD0Ev
libixpdimm-cli.so.1:_ZN3cli6nvmcli18VerboseFeatureBaseD1Ev
libixpdimm-cli.so.1:_ZN3cli6nvmcli18VerboseFeatureBaseD2Ev
libixpdimm-cli.so.1:_ZN3cli6nvmcli18generateDimmFilterERKNS_9framework13ParsedCommandERSt6vectorINSt7__cxx1112basic_stringIcSt11char_traitsIcESaIcEEESaISB_EERS5_INS0_14instanceFilterESaISF_EESB_
libixpdimm-cli.so.1:_ZN3cli6nvmcli19FieldSupportFeature10showEventsERKNS_9framework13ParsedCommandE
libixpdimm-cli.so.1:_ZN3cli6nvmcli19FieldSupportFeature11dumpSupportERKNS_9framework13ParsedCommandE
libixpdimm-cli.so.1:_ZN3cli6nvmcli19FieldSupportFeature11showVersionERKNS_9framework13ParsedCommandE
libixpdimm-cli.so.1:_ZN3cli6nvmcli19FieldSupportFeature12formatDeviceERKNS_9framework13ParsedCommandE
libixpdimm-cli.so.1:_ZN3cli6nvmcli19FieldSupportFeature13deleteSupportERKNS_9framework13ParsedCommandE
libixpdimm-cli.so.1:_ZN3cli6nvmcli19FieldSupportFeature13runDiagnosticERKNS_9framework13ParsedCommandE
libixpdimm-cli.so.1:_ZN3cli6nvmcli19FieldSupportFeature13showDevicePcdERKNS_9framework13ParsedCommandE
libixpdimm-cli.so.1:_ZN3cli6nvmcli19FieldSupportFeature13wbemGetEventsERN4wbem7support14EventLogFilterE
libixpdimm-cli.so.1:_ZN3cli6nvmcli19FieldSupportFeature14createSnapshotERKNS_9framework13ParsedCommandE
libixpdimm-cli.so.1:_ZN3cli6nvmcli19FieldSupportFeature14updateFirmwareERKNS_9framework13ParsedCommandE
libixpdimm-cli.so.1:_ZN3cli6nvmcli19FieldSupportFeature15deleteDevicePcdERKNS_9framework13ParsedCommandE
libixpdimm-cli.so.1:_ZN3cli6nvmcli19FieldSupportFeature15showPerformanceERKNS_9framework13ParsedCommandE
libixpdimm-cli.so.1:_ZN3cli6nvmcli19FieldSupportFeature15showPreferencesERKNS_9framework13ParsedCommandE
libixpdimm-cli.so.1:_ZN3cli6nvmcli19FieldSupportFeature15wbemDumpSupportERKNSt7__cxx1112basic_stringIcSt11char_traitsIcESaIcEEE
libixpdimm-cli.so.1:_ZN3cli6nvmcli19FieldSupportFeature16firmwareIsStagedERN4core6ResultINS2_6device18DeviceFirmwareInfoEEERKNSt7__cxx1112basic_stringIcSt11char_traitsIcESaIcEEE
libixpdimm-cli.so.1:_ZN3cli6nvmcli19FieldSupportFeature16parseCliDateTimeENSt7__cxx1112basic_stringIcSt11char_traitsIcESaIcEEEP2tm
libixpdimm-cli.so.1:_ZN3cli6nvmcli19FieldSupportFeature16wbemClearSupportEv
libixpdimm-cli.so.1:_ZN3cli6nvmcli19FieldSupportFeature17changePreferencesERKNS_9framework13ParsedCommandE
libixpdimm-cli.so.1:_ZN3cli6nvmcli19FieldSupportFeature17dumpDeviceSupportERKNS_9framework13ParsedCommandE
libixpdimm-cli.so.1:_ZN3cli6nvmcli19FieldSupportFeature18changeMgmtLogLevelERKNS_9framework13ParsedCommandE
libixpdimm-cli.so.1:_ZN3cli6nvmcli19FieldSupportFeature18convertFwTypeToStrB5cxx11E14device_fw_type
libixpdimm-cli.so.1:_ZN3cli6nvmcli19FieldSupportFeature18getDiagnosticDimmsERKNS_9framework13ParsedCommandERSt6vectorINSt7__cxx1112basic_stringIcSt11char_traitsIcESaIcEEESaISC_EE
libixpdimm-cli.so.1:_ZN3cli6nvmcli19FieldSupportFeature18showDeviceFirmwareERKNS_9framework13ParsedCommandE
libixpdimm-cli.so.1:_ZN3cli6nvmcli19FieldSupportFeature18wbemExamineFwImageERKNSt7__cxx1112basic_stringIcSt11char_traitsIcESaIcEEES9_RS7_
libixpdimm-cli.so.1:_ZN3cli6nvmcli19FieldSupportFeature19wbemInstallFromPathERKNSt7__cxx1112basic_stringIcSt11char_traitsIcESaIcEEES9_b
libixpdimm-cli.so.1:_ZN3cli6nvmcli19FieldSupportFeature20updatePreferenceInDbEPKcS3_PNS_9framework16SimpleListResultENSt7__cxx1112basic_stringIcSt11char_traitsIcESaIcEEE
libixpdimm-cli.so.1:_ZN3cli6nvmcli19FieldSupportFeature21stringIsNumberInRangeERKNSt7__cxx1112basic_stringIcSt11char_traitsIcESaIcEEEii
libixpdimm-cli.so.1:_ZN3cli6nvmcli19FieldSupportFeature22wbemToCliGetNamespacesERKNS_9framework13ParsedCommandERSt6vectorINSt7__cxx1112basic_stringIcSt11char_traitsIcESaIcEEESaISC_EE
libixpdimm-cli.so.1:_ZN3cli6nvmcli19FieldSupportFeature23appDirectSettingIsValidERKNS_9framework13ParsedCommandE
libixpdimm-cli.so.1:_ZN3cli6nvmcli19FieldSupportFeature23getSupportedPreferencesB5cxx11Ev
libixpdimm-cli.so.1:_ZN3cli6nvmcli19FieldSupportFeature24checkAppdirectCapacitiesERb
libixpdimm-cli.so.1:_ZN3cli6nvmcli19FieldSupportFeature24showEvents_inputToFilterERKNS_9framework13ParsedCommandERN4wbem7support14EventLogFilterE
libixpdimm-cli.so.1:_ZN3cli6nvmcli19FieldSupportFeature24valueIsValidNumberForKeyENSt7__cxx1112basic_stringIcSt11char_traitsIcESaIcEEES7_
libixpdimm-cli.so.1:_ZN3cli6nvmcli19FieldSupportFeature26convertFWUpdateStatusToStrB5cxx11E16fw_update_status
libixpdimm-cli.so.1:_ZN3cli6nvmcli19FieldSupportFeature26getDeviceFirmwareInstancesERKNS_9framework13ParsedCommandERSt6vectorIN4wbem9framework8InstanceESaIS9_EE
libixpdimm-cli.so.1:_ZN3cli6nvmcli19FieldSupportFeature27appDirectSettingIsSupportedERKNS_9framework13ParsedCommandE
libixpdimm-cli.so.1:_ZN3cli6nvmcli19FieldSupportFeature28fwHasLastFwUpdateStatusFieldERKNSt7__cxx1112basic_stringIcSt11char_traitsIcESaIcEEE
libixpdimm-cli.so.1:_ZN3cli6nvmcli19FieldSupportFeature28showEvents_getTimeFromOptionENSt7__cxx1112basic_stringIcSt11char_traitsIcESaIcEEERKNS_9framework13ParsedCommandEPlPb
libixpdimm-cli.so.1:_ZN3cli6nvmcli19FieldSupportFeature33showEvents_logEntriesToObjectListEPSt6vectorIN4wbem9framework8InstanceESaIS5_EE
libixpdimm-cli.so.1:_ZN3cli6nvmcli19FieldSupportFeature3runERKiRKNS_9framework13ParsedCommandE
libixpdimm-cli.so.1:_ZN3cli6nvmcli19FieldSupportFeature8ackEventERKNS_9framework13ParsedCommandE
libixpdimm-cli.so.1:_ZN3cli6nvmcli19FieldSupportFeature8getPathsERSt6vectorINS_9framework11CommandSpecESaIS4_EE
libixpdimm-cli.so.1:_ZN3cli6nvmcli19FieldSupportFeature8showLogsERKNS_9framework13ParsedCommandE
libixpdimm-cli.so.1:_ZN3cli6nvmcli19FieldSupportFeature9isInRangeEiii
libixpdimm-cli.so.1:_ZN3cli6nvmcli19FieldSupportFeatureC1Ev
libixpdimm-cli.so.1:_ZN3cli6nvmcli19FieldSupportFeatureC2Ev
libixpdimm-cli.so.1:_ZN3cli6nvmcli19FormatDeviceCommand10UserPrompt24promptUserToFormatDeviceERN4core6device6DeviceE
libixpdimm-cli.so.1:_ZN3cli6nvmcli19FormatDeviceCommand10UserPromptC1ERKNS_9framework11YesNoPromptE
libixpdimm-cli.so.1:_ZN3cli6nvmcli19FormatDeviceCommand10UserPromptC2ERKNS_9framework11YesNoPromptE
libixpdimm-cli.so.1:_ZN3cli6nvmcli19FormatDeviceCommand12parseDevicesEv
libixpdimm-cli.so.1:_ZN3cli6nvmcli19FormatDeviceCommand13filterDevicesEv
libixpdimm-cli.so.1:_ZN3cli6nvmcli19FormatDeviceCommand13formatDevicesEv
libixpdimm-cli.so.1:_ZN3cli6nvmcli19FormatDeviceCommand14getCommandSpecEi
libixpdimm-cli.so.1:_ZN3cli6nvmcli19FormatDeviceCommand14hasForceOptionEv
libixpdimm-cli.so.1:_ZN3cli6nvmcli19FormatDeviceCommand14setErrorResultERKNSt7__cxx1112basic_stringIcSt11char_traitsIcESaIcEEE
libixpdimm-cli.so.1:_ZN3cli6nvmcli19FormatDeviceCommand15dimmIdsAreValidEv
libixpdimm-cli.so.1:_ZN3cli6nvmcli19FormatDeviceCommand15getErrorMessageB5cxx11Ei
libixpdimm-cli.so.1:_ZN3cli6nvmcli19FormatDeviceCommand16getMessagePrefixB5cxx11ERN4core6device6DeviceE
libixpdimm-cli.so.1:_ZN3cli6nvmcli19FormatDeviceCommand20startFormatForDeviceERN4core6device6DeviceE
libixpdimm-cli.so.1:_ZN3cli6nvmcli19FormatDeviceCommand22errorIfNoDevicesRemainEv
libixpdimm-cli.so.1:_ZN3cli6nvmcli19FormatDeviceCommand22filterDevicesOnDimmIdsEv
libixpdimm-cli.so.1:_ZN3cli6nvmcli19FormatDeviceCommand23filterManageableDevicesEv
libixpdimm-cli.so.1:_ZN3cli6nvmcli19FormatDeviceCommand26insertErrorResultForDeviceEPNS_9framework16SimpleListResultERN4core6device6DeviceE
libixpdimm-cli.so.1:_ZN3cli6nvmcli19FormatDeviceCommand27isFormatCompleteForAllDimmsEv
libixpdimm-cli.so.1:_ZN3cli6nvmcli19FormatDeviceCommand28insertSuccessResultForDeviceEPNS_9framework16SimpleListResultERN4core6device6DeviceE
libixpdimm-cli.so.1:_ZN3cli6nvmcli19FormatDeviceCommand31addPowerCycleNoticeToResultListEv
libixpdimm-cli.so.1:_ZN3cli6nvmcli19FormatDeviceCommand31insertNonFormattableDimmMessageEPNS_9framework16SimpleListResultERN4core6device6DeviceERKNSt7__cxx1112basic_stringIcSt11char_traitsIcESaIcEEE
libixpdimm-cli.so.1:_ZN3cli6nvmcli19FormatDeviceCommand34waitUntilFormatCompleteForAllDimmsEv
libixpdimm-cli.so.1:_ZN3cli6nvmcli19FormatDeviceCommand5sleepEj
libixpdimm-cli.so.1:_ZN3cli6nvmcli19FormatDeviceCommand7executeERKNS_9framework13ParsedCommandE
libixpdimm-cli.so.1:_ZN3cli6nvmcli19FormatDeviceCommand8hasErrorEv
libixpdimm-cli.so.1:_ZN3cli6nvmcli19FormatDeviceCommandC1ERNS1_10UserPromptERN4core6device13DeviceServiceERNS5_19FormatDeviceServiceE
libixpdimm-cli.so.1:_ZN3cli6nvmcli19FormatDeviceCommandC2ERNS1_10UserPromptERN4core6device13DeviceServiceERNS5_19FormatDeviceServiceE
libixpdimm-cli.so.1:_ZN3cli6nvmcli19FormatDeviceCommandD0Ev
libixpdimm-cli.so.1:_ZN3cli6nvmcli19FormatDeviceCommandD1Ev
libixpdimm-cli.so.1:_ZN3cli6nvmcli19FormatDeviceCommandD2Ev
libixpdimm-cli.so.1:_ZN3cli6nvmcli19ModifyDeviceCommand12modifyDeviceERN4core6device6DeviceE
libixpdimm-cli.so.1:_ZN3cli6nvmcli19ModifyDeviceCommand12parseDevicesEv
libixpdimm-cli.so.1:_ZN3cli6nvmcli19ModifyDeviceCommand12parseDimmIdsEv
libixpdimm-cli.so.1:_ZN3cli6nvmcli19ModifyDeviceCommand13filterDevicesEv
libixpdimm-cli.so.1:_ZN3cli6nvmcli19ModifyDeviceCommand13modifyDevicesEv
libixpdimm-cli.so.1:_ZN3cli6nvmcli19ModifyDeviceCommand13parseSettingsEv
libixpdimm-cli.so.1:_ZN3cli6nvmcli19ModifyDeviceCommand14getCommandSpecEi
libixpdimm-cli.so.1:_ZN3cli6nvmcli19ModifyDeviceCommand15dimmIdsAreValidEv
libixpdimm-cli.so.1:_ZN3cli6nvmcli19ModifyDeviceCommand16parseForceOptionEv
libixpdimm-cli.so.1:_ZN3cli6nvmcli19ModifyDeviceCommand16parseViralPolicyEv
libixpdimm-cli.so.1:_ZN3cli6nvmcli19ModifyDeviceCommand18shouldModifyDeviceERN4core6device6DeviceE
libixpdimm-cli.so.1:_ZN3cli6nvmcli19ModifyDeviceCommand21filterManageableDimmsEv
libixpdimm-cli.so.1:_ZN3cli6nvmcli19ModifyDeviceCommand21parseFirstFastRefreshEv
libixpdimm-cli.so.1:_ZN3cli6nvmcli19ModifyDeviceCommand24getResultPrefixForDeviceB5cxx11ERN4core6device6DeviceE
libixpdimm-cli.so.1:_ZN3cli6nvmcli19ModifyDeviceCommand25getPromptMessageForDeviceB5cxx11ERN4core6device6DeviceE
libixpdimm-cli.so.1:_ZN3cli6nvmcli19ModifyDeviceCommand25parseBooleanPropertyValueERKNSt7__cxx1112basic_stringIcSt11char_traitsIcESaIcEEES9_
libixpdimm-cli.so.1:_ZN3cli6nvmcli19ModifyDeviceCommand26getNewViralPolicyForDeviceERN4core6device6DeviceE
libixpdimm-cli.so.1:_ZN3cli6nvmcli19ModifyDeviceCommand28insertSuccessResultForDeviceERN4core6device6DeviceE
libixpdimm-cli.so.1:_ZN3cli6nvmcli19ModifyDeviceCommand29checkAtLeastOnePropertyExistsEv
libixpdimm-cli.so.1:_ZN3cli6nvmcli19ModifyDeviceCommand30checkAtLeastOneDimmStillInListEv
libixpdimm-cli.so.1:_ZN3cli6nvmcli19ModifyDeviceCommand30insertUnchangedResultForDeviceERN4core6device6DeviceE
libixpdimm-cli.so.1:_ZN3cli6nvmcli19ModifyDeviceCommand31getNewFirstFastRefreshForDeviceERN4core6device6DeviceE
libixpdimm-cli.so.1:_ZN3cli6nvmcli19ModifyDeviceCommand39insertErrorResultForDeviceFromExceptionERN4core6device6DeviceERNS2_16LibraryExceptionE
libixpdimm-cli.so.1:_ZN3cli6nvmcli19ModifyDeviceCommand7executeERKNS_9framework13ParsedCommandE
libixpdimm-cli.so.1:_ZN3cli6nvmcli19ModifyDeviceCommand8hasErrorEv
libixpdimm-cli.so.1:_ZN3cli6nvmcli19ModifyDeviceCommandC1ERNS_9framework11YesNoPromptERN4core6device13DeviceServiceE
libixpdimm-cli.so.1:_ZN3cli6nvmcli19ModifyDeviceCommandC2ERNS_9framework11YesNoPromptERN4core6device13DeviceServiceE
libixpdimm-cli.so.1:_ZN3cli6nvmcli19ModifyDeviceCommandD0Ev
libixpdimm-cli.so.1:_ZN3cli6nvmcli19ModifyDeviceCommandD1Ev
libixpdimm-cli.so.1:_ZN3cli6nvmcli19ModifyDeviceCommandD2Ev
libixpdimm-cli.so.1:_ZN3cli6nvmcli19RemoveAttributeNameERSt6vectorINSt7__cxx1112basic_stringIcSt11char_traitsIcESaIcEEESaIS7_EES7_
libixpdimm-cli.so.1:_ZN3cli6nvmcli19ShowTopologyCommand11getSocketIdB5cxx11ERN4core6device8TopologyE
libixpdimm-cli.so.1:_ZN3cli6nvmcli19ShowTopologyCommand12getChannelIdB5cxx11ERN4core6device8TopologyE
libixpdimm-cli.so.1:_ZN3cli6nvmcli19ShowTopologyCommand13createResultsEv
libixpdimm-cli.so.1:_ZN3cli6nvmcli19ShowTopologyCommand15convertCapacityB5cxx11Ey
libixpdimm-cli.so.1:_ZN3cli6nvmcli19ShowTopologyCommand15dimmIdsAreValidEv
libixpdimm-cli.so.1:_ZN3cli6nvmcli19ShowTopologyCommand17convertMemoryTypeB5cxx11E11memory_type
libixpdimm-cli.so.1:_ZN3cli6nvmcli19ShowTopologyCommand17socketIdsAreValidEv
libixpdimm-cli.so.1:_ZN3cli6nvmcli19ShowTopologyCommand18getChannelPositionB5cxx11ERN4core6device8TopologyE
libixpdimm-cli.so.1:_ZN3cli6nvmcli19ShowTopologyCommand18unitsOptionIsValidEv
libixpdimm-cli.so.1:_ZN3cli6nvmcli19ShowTopologyCommand19getNodeControllerIdB5cxx11ERN4core6device8TopologyE
libixpdimm-cli.so.1:_ZN3cli6nvmcli19ShowTopologyCommand19isPropertyDisplayedERNS_9framework19IPropertyDefinitionIN4core6device8TopologyEEE
libixpdimm-cli.so.1:_ZN3cli6nvmcli19ShowTopologyCommand21getMemoryControllerIdB5cxx11ERN4core6device8TopologyE
libixpdimm-cli.so.1:_ZN3cli6nvmcli19ShowTopologyCommand22displayOptionsAreValidEv
libixpdimm-cli.so.1:_ZN3cli6nvmcli19ShowTopologyCommand25filterTopologiesOnDimmIdsEv
libixpdimm-cli.so.1:_ZN3cli6nvmcli19ShowTopologyCommand27filterTopologiesOnSocketIdsEv
libixpdimm-cli.so.1:_ZN3cli6nvmcli19ShowTopologyCommand7executeERKNS_9framework13ParsedCommandE
libixpdimm-cli.so.1:_ZN3cli6nvmcli19ShowTopologyCommand9getDimmIdB5cxx11ERN4core6device8TopologyE
libixpdimm-cli.so.1:_ZN3cli6nvmcli19ShowTopologyCommandC1ERN4core6device15TopologyServiceE
libixpdimm-cli.so.1:_ZN3cli6nvmcli19ShowTopologyCommandC2ERN4core6device15TopologyServiceE
libixpdimm-cli.so.1:_ZN3cli6nvmcli19getDimmsFromSocketsERKNS_9framework13ParsedCommandERSt6vectorINSt7__cxx1112basic_stringIcSt11char_traitsIcESaIcEEESaISB_EE
libixpdimm-cli.so.1:_ZN3cli6nvmcli19isStringValidNumberERKNSt7__cxx1112basic_stringIcSt11char_traitsIcESaIcEEE
libixpdimm-cli.so.1:_ZN3cli6nvmcli20AttributeToHexStringB5cxx11ERKN4wbem9framework9AttributeE
libixpdimm-cli.so.1:_ZN3cli6nvmcli20FilterAttributeNamesERSt6vectorINSt7__cxx1112basic_stringIcSt11char_traitsIcESaIcEEESaIS7_EES7_
libixpdimm-cli.so.1:_ZN3cli6nvmcli20NvmExceptionToResultERN4wbem9framework9ExceptionENSt7__cxx1112basic_stringIcSt11char_traitsIcESaIcEEE
libixpdimm-cli.so.1:_ZN3cli6nvmcli20ShowCommandUtilities12listToStringESt6vectorINSt7__cxx1112basic_stringIcSt11char_traitsIcESaIcEEESaIS8_EE
libixpdimm-cli.so.1:_ZN3cli6nvmcli20ShowCommandUtilities17getFirstBadDimmIdB5cxx11ERKN4core10StringListERNS2_6device16DeviceCollectionE
libixpdimm-cli.so.1:_ZN3cli6nvmcli20ShowCommandUtilities17getFormattedEventB5cxx11ERK5event
libixpdimm-cli.so.1:_ZN3cli6nvmcli20ShowCommandUtilities19getFirstBadSocketIdB5cxx11ERKN4core10StringListERNS2_6device16DeviceCollectionE
libixpdimm-cli.so.1:_ZN3cli6nvmcli20ShowCommandUtilities21getFormattedEventListB5cxx11ERKSt6vectorI5eventSaIS3_EE
libixpdimm-cli.so.1:_ZN3cli6nvmcli20ShowCommandUtilities22filterDevicesOnDimmIdsERN4core6device16DeviceCollectionERNS2_10StringListE
libixpdimm-cli.so.1:_ZN3cli6nvmcli20ShowCommandUtilities22getInvalidDimmIdResultERKN4core10StringListERNS2_6device16DeviceCollectionE
libixpdimm-cli.so.1:_ZN3cli6nvmcli20ShowCommandUtilities24filterDevicesOnSocketIdsERN4core6device16DeviceCollectionERNS2_10StringListE
libixpdimm-cli.so.1:_ZN3cli6nvmcli20ShowCommandUtilities24getInvalidSocketIdResultERKN4core10StringListERNS2_6device16DeviceCollectionE
libixpdimm-cli.so.1:_ZN3cli6nvmcli20ShowCommandUtilities25isUserPreferenceDimmIdUidEv
libixpdimm-cli.so.1:_ZN3cli6nvmcli20ShowCommandUtilities27getInvalidUnitsOptionResultERKNS_9framework11UnitsOptionE
libixpdimm-cli.so.1:_ZN3cli6nvmcli20ShowCommandUtilities28getHexFormatFromDeviceHandleB5cxx11Ej
libixpdimm-cli.so.1:_ZN3cli6nvmcli20ShowCommandUtilities30populateDevicesFromDimmsStringENSt7__cxx1112basic_stringIcSt11char_traitsIcESaIcEEEb
libixpdimm-cli.so.1:_ZN3cli6nvmcli20ShowCommandUtilities31getDimmIdFromDeviceUidAndHandleERKNSt7__cxx1112basic_stringIcSt11char_traitsIcESaIcEEEj
libixpdimm-cli.so.1:_ZN3cli6nvmcli20ShowCommandUtilities5isUidENSt7__cxx1112basic_stringIcSt11char_traitsIcESaIcEEE
libixpdimm-cli.so.1:_ZN3cli6nvmcli20ShowCommandUtilities5splitERKNSt7__cxx1112basic_stringIcSt11char_traitsIcESaIcEEEc
libixpdimm-cli.so.1:_ZN3cli6nvmcli20ShowCommandUtilities9getDimmIdB5cxx11ERN4core6device6DeviceE
libixpdimm-cli.so.1:_ZN3cli6nvmcli20ShowDevicePcdCommand13createResultsEv
libixpdimm-cli.so.1:_ZN3cli6nvmcli20ShowDevicePcdCommand14getCommandSpecEi
libixpdimm-cli.so.1:_ZN3cli6nvmcli20ShowDevicePcdCommand15dimmIdsAreValidEv
libixpdimm-cli.so.1:_ZN3cli6nvmcli20ShowDevicePcdCommand22filterDevicesOnDimmIdsEv
libixpdimm-cli.so.1:_ZN3cli6nvmcli20ShowDevicePcdCommand7executeERKNS_9framework13ParsedCommandE
libixpdimm-cli.so.1:_ZN3cli6nvmcli20ShowDevicePcdCommandC1ERN4core6device13DeviceServiceE
libixpdimm-cli.so.1:_ZN3cli6nvmcli20ShowDevicePcdCommandC2ERN4core6device13DeviceServiceE
libixpdimm-cli.so.1:_ZN3cli6nvmcli20ShowDevicePcdCommandD0Ev
libixpdimm-cli.so.1:_ZN3cli6nvmcli20ShowDevicePcdCommandD1Ev
libixpdimm-cli.so.1:_ZN3cli6nvmcli20ShowDevicePcdCommandD2Ev
libixpdimm-cli.so.1:_ZN3cli6nvmcli20generateSocketFilterERKNS_9framework13ParsedCommandERSt6vectorINSt7__cxx1112basic_stringIcSt11char_traitsIcESaIcEEESaISB_EERS5_INS0_14instanceFilterESaISF_EE
libixpdimm-cli.so.1:_ZN3cli6nvmcli21CoreExceptionToResultERSt9exceptionNSt7__cxx1112basic_stringIcSt11char_traitsIcESaIcEEE
libixpdimm-cli.so.1:_ZN3cli6nvmcli21ShowHostServerCommand13createResultsEv
libixpdimm-cli.so.1:_ZN3cli6nvmcli21ShowHostServerCommand19isPropertyDisplayedERNS_9framework19IPropertyDefinitionIN4core6system10SystemInfoEEE
libixpdimm-cli.so.1:_ZN3cli6nvmcli21ShowHostServerCommand22displayOptionsAreValidEv
libixpdimm-cli.so.1:_ZN3cli6nvmcli21ShowHostServerCommand7executeERKNS_9framework13ParsedCommandE
libixpdimm-cli.so.1:_ZN3cli6nvmcli21ShowHostServerCommandC1ERN4core6system13SystemServiceE
libixpdimm-cli.so.1:_ZN3cli6nvmcli21ShowHostServerCommandC2ERN4core6system13SystemServiceE
libixpdimm-cli.so.1:_ZN3cli6nvmcli21convertCapacityFormatEyNSt7__cxx1112basic_stringIcSt11char_traitsIcESaIcEEE
libixpdimm-cli.so.1:_ZN3cli6nvmcli22DeleteDevicePcdCommand14getCommandSpecEi
libixpdimm-cli.so.1:_ZN3cli6nvmcli22DeleteDevicePcdCommand14hasForceOptionEv
libixpdimm-cli.so.1:_ZN3cli6nvmcli22DeleteDevicePcdCommand15dimmIdsAreValidEv
libixpdimm-cli.so.1:_ZN3cli6nvmcli22DeleteDevicePcdCommand19deleteDevicesPcdLsaEv
libixpdimm-cli.so.1:_ZN3cli6nvmcli22DeleteDevicePcdCommand21promptUserToDeletePCDERN4core6device6DeviceE
libixpdimm-cli.so.1:_ZN3cli6nvmcli22DeleteDevicePcdCommand22filterDevicesOnDimmIdsEv
libixpdimm-cli.so.1:_ZN3cli6nvmcli22DeleteDevicePcdCommand7executeERKNS_9framework13ParsedCommandE
libixpdimm-cli.so.1:_ZN3cli6nvmcli22DeleteDevicePcdCommandC1ERN4core6device13DeviceServiceERNS2_10NvmLibraryE
libixpdimm-cli.so.1:_ZN3cli6nvmcli22DeleteDevicePcdCommandC2ERN4core6device13DeviceServiceERNS2_10NvmLibraryE
libixpdimm-cli.so.1:_ZN3cli6nvmcli22DeleteDevicePcdCommandD0Ev
libixpdimm-cli.so.1:_ZN3cli6nvmcli22DeleteDevicePcdCommandD1Ev
libixpdimm-cli.so.1:_ZN3cli6nvmcli22DeleteDevicePcdCommandD2Ev
libixpdimm-cli.so.1:_ZN3cli6nvmcli22convertCapacityToBytesENSt7__cxx1112basic_stringIcSt11char_traitsIcESaIcEEEf
libixpdimm-cli.so.1:_ZN3cli6nvmcli24DumpDeviceSupportCommand13createResultsEv
libixpdimm-cli.so.1:_ZN3cli6nvmcli24DumpDeviceSupportCommand13validateInputEv
libixpdimm-cli.so.1:_ZN3cli6nvmcli24DumpDeviceSupportCommand7executeERKNS_9framework13ParsedCommandE
libixpdimm-cli.so.1:_ZN3cli6nvmcli24DumpDeviceSupportCommandC1ERN4core6device13DeviceServiceE
libixpdimm-cli.so.1:_ZN3cli6nvmcli24DumpDeviceSupportCommandC2ERN4core6device13DeviceServiceE
libixpdimm-cli.so.1:_ZN3cli6nvmcli24DumpDeviceSupportCommandD0Ev
libixpdimm-cli.so.1:_ZN3cli6nvmcli24DumpDeviceSupportCommandD1Ev
libixpdimm-cli.so.1:_ZN3cli6nvmcli24DumpDeviceSupportCommandD2Ev
libixpdimm-cli.so.1:_ZN3cli6nvmcli24convertCapacityAttributeERN4wbem9framework8InstanceENSt7__cxx1112basic_stringIcSt11char_traitsIcESaIcEEESA_
libixpdimm-cli.so.1:_ZN3cli6nvmcli25GetRequestedCapacityUnitsERKNS_9framework13ParsedCommandERNSt7__cxx1112basic_stringIcSt11char_traitsIcESaIcEEE
libixpdimm-cli.so.1:_ZN3cli6nvmcli26ShowMemoryResourcesCommand13createResultsEv
libixpdimm-cli.so.1:_ZN3cli6nvmcli26ShowMemoryResourcesCommand15convertCapacityB5cxx11Ey
libixpdimm-cli.so.1:_ZN3cli6nvmcli26ShowMemoryResourcesCommand18unitsOptionIsValidEv
libixpdimm-cli.so.1:_ZN3cli6nvmcli26ShowMemoryResourcesCommand19isPropertyDisplayedERNS_9framework19IPropertyDefinitionIN4core6system21SystemMemoryResourcesEEE
libixpdimm-cli.so.1:_ZN3cli6nvmcli26ShowMemoryResourcesCommand22displayOptionsAreValidEv
libixpdimm-cli.so.1:_ZN3cli6nvmcli26ShowMemoryResourcesCommand7executeERKNS_9framework13ParsedCommandE
libixpdimm-cli.so.1:_ZN3cli6nvmcli26ShowMemoryResourcesCommandC1ERN4core6system13SystemServiceE
libixpdimm-cli.so.1:_ZN3cli6nvmcli26ShowMemoryResourcesCommandC2ERN4core6system13SystemServiceE
libixpdimm-cli.so.1:_ZN3cli6nvmcli27getInvalidDimmIdErrorStringERKNSt7__cxx1112basic_stringIcSt11char_traitsIcESaIcEEE
libixpdimm-cli.so.1:_ZN3cli6nvmcli27getInvalidPoolIdErrorStringERKNSt7__cxx1112basic_stringIcSt11char_traitsIcESaIcEEE
libixpdimm-cli.so.1:_ZN3cli6nvmcli29NvmInstanceToObjectListResultERKSt6vectorIN4wbem9framework8InstanceESaIS4_EERKNSt7__cxx1112basic_stringIcSt11char_traitsIcESaIcEEESG_RKS1_ISE_SaISE_EERKS1_INS0_14instanceFilterESaISL_EE
libixpdimm-cli.so.1:_ZN3cli6nvmcli31NvmInstanceToPropertyListResultERKN4wbem9framework8InstanceERKSt6vectorINSt7__cxx1112basic_stringIcSt11char_traitsIcESaIcEEESaISC_EESC_
libixpdimm-cli.so.1:_ZN3cli6nvmcli31SetResultErrorCodeFromExceptionERNS_9framework10ResultBaseERN4wbem9framework9ExceptionENSt7__cxx1112basic_stringIcSt11char_traitsIcESaIcEEE
libixpdimm-cli.so.1:_ZN3cli6nvmcli31calculateBlockCountForNamespaceEyy
libixpdimm-cli.so.1:_ZN3cli6nvmcli33translateCapacityToRequestedUnitsEyNSt7__cxx1112basic_stringIcSt11char_traitsIcESaIcEEE
libixpdimm-cli.so.1:_ZN3cli6nvmcli39findBestCapacityFormatInBinaryMultiplesEyRNSt7__cxx1112basic_stringIcSt11char_traitsIcESaIcEEE
libixpdimm-cli.so.1:_ZN3cli6nvmcli40findBestCapacityFormatInDecimalMultiplesEyRNSt7__cxx1112basic_stringIcSt11char_traitsIcESaIcEEE
libixpdimm-cli.so.1:_ZN3cli6nvmcli42generateFilterForAttributeWithTargetValuesERKNS_9framework13ParsedCommandERKNSt7__cxx1112basic_stringIcSt11char_traitsIcESaIcEEESC_RSt6vectorINS0_14instanceFilterESaISE_EE
libixpdimm-cli.so.1:_ZN3cli6nvmcli8getDimmsERKNS_9framework13ParsedCommandERSt6vectorINSt7__cxx1112basic_stringIcSt11char_traitsIcESaIcEEESaISB_EE
libixpdimm-cli.so.1:_ZN3cli6nvmcli9WbemToCli12checkPoolUidERKNS_9framework13ParsedCommandERNSt7__cxx1112basic_stringIcSt11char_traitsIcESaIcEEE
libixpdimm-cli.so.1:_ZN3cli6nvmcli9WbemToCli13getNamespacesERKNS_9framework13ParsedCommandERSt6vectorINSt7__cxx1112basic_stringIcSt11char_traitsIcESaIcEEESaISC_EE
libixpdimm-cli.so.1:_ZN3cli6nvmcli9WbemToCliC1Ev
libixpdimm-cli.so.1:_ZN3cli6nvmcli9WbemToCliC2Ev
libixpdimm-cli.so.1:_ZN3cli6nvmcli9WbemToCliD0Ev
libixpdimm-cli.so.1:_ZN3cli6nvmcli9WbemToCliD1Ev
libixpdimm-cli.so.1:_ZN3cli6nvmcli9WbemToCliD2Ev
libixpdimm-cli.so.1:_ZN3cli9framework11CommandBaseC1Ev
libixpdimm-cli.so.1:_ZN3cli9framework11CommandBaseC2Ev
libixpdimm-cli.so.1:_ZN3cli9framework11UnitsOptionaSERKS1_
libixpdimm-cli.so.1:_ZN3cli9framework11YesNoPromptC1ERKNS0_14ConsoleAdapterE
libixpdimm-cli.so.1:_ZN3cli9framework11YesNoPromptC2ERKNS0_14ConsoleAdapterE
libixpdimm-cli.so.1:_ZN3cli9framework14ConsoleAdapter10getAdapterEv
libixpdimm-cli.so.1:_ZN3cli9framework14DisplayOptionsaSERKS1_
libixpdimm-cli.so.1:_ZN3cli9framework9CliHelper25splitCommaSeperatedStringERKNSt7__cxx1112basic_stringIcSt11char_traitsIcESaIcEEE
libixpdimm-cli.so.1:_ZN4core10StringList8containsENSt7__cxx1112basic_stringIcSt11char_traitsIcESaIcEEE
libixpdimm-cli.so.1:_ZN4core10StringListC1ESt6vectorINSt7__cxx1112basic_stringIcSt11char_traitsIcESaIcEEESaIS7_EE
libixpdimm-cli.so.1:_ZN4core10StringListC1Ev
libixpdimm-cli.so.1:_ZN4core10StringListC2ESt6vectorINSt7__cxx1112basic_stringIcSt11char_traitsIcESaIcEEESaIS7_EE
libixpdimm-cli.so.1:_ZN4core10StringListC2Ev
libixpdimm-cli.so.1:_ZNK3cli6nvmcli13SensorFeature11isValidTypeERKNSt7__cxx1112basic_stringIcSt11char_traitsIcESaIcEEE
libixpdimm-cli.so.1:_ZNK3cli6nvmcli13SensorFeature22isSensorTypeModifiableERKNSt7__cxx1112basic_stringIcSt11char_traitsIcESaIcEEE
libixpdimm-cli.so.1:_ZNK3cli6nvmcli14MemoryProperty10getIsByOneEv
libixpdimm-cli.so.1:_ZNK3cli6nvmcli14MemoryProperty13getIsMirroredEv
libixpdimm-cli.so.1:_ZNK3cli6nvmcli14MemoryProperty13getIsSizePartERKNSt7__cxx1112basic_stringIcSt11char_traitsIcESaIcEEE
libixpdimm-cli.so.1:_ZNK3cli6nvmcli14MemoryProperty20getIsSizeValidNumberEv
libixpdimm-cli.so.1:_ZNK3cli6nvmcli14MemoryProperty21getIsFirstSettingPartERKNSt7__cxx1112basic_stringIcSt11char_traitsIcESaIcEEE
libixpdimm-cli.so.1:_ZNK3cli6nvmcli14MemoryProperty22getIsSettingsSupportedERK16nvm_capabilities
libixpdimm-cli.so.1:_ZNK3cli6nvmcli14MemoryProperty8validateEv
libixpdimm-cli.so.1:_ZNK3cli6nvmcli17CreateGoalCommand15ShowGoalAdapter15showCurrentGoalERKNSt7__cxx1112basic_stringIcSt11char_traitsIcESaIcEEE
libixpdimm-cli.so.1:_ZNK3cli6nvmcli17CreateGoalCommand15ShowGoalAdapter17showGoalForLayoutERKN4core16memory_allocator22MemoryAllocationLayoutERKNSt7__cxx1112basic_stringIcSt11char_traitsIcESaIcEEE
libixpdimm-cli.so.1:_ZNK3cli6nvmcli17CreateGoalCommand15ShowGoalAdapter27getLayoutGoalDisplayOptionsEv
libixpdimm-cli.so.1:_ZNK3cli6nvmcli17CreateGoalCommand15ShowGoalAdapter30getLayoutGoalDisplayPropertiesEv
libixpdimm-cli.so.1:_ZNK3cli6nvmcli19DimmProviderAdapter8getDimmsERKNS_9framework13ParsedCommandERSt6vectorINSt7__cxx1112basic_stringIcSt11char_traitsIcESaIcEEESaISC_EE
libixpdimm-cli.so.1:_ZNK3cli6nvmcli19ShowTopologyCommand17getFirstBadDimmIdB5cxx11ERN4core6device18TopologyCollectionE
libixpdimm-cli.so.1:_ZNK3cli6nvmcli19ShowTopologyCommand19getFirstBadSocketIdB5cxx11ERN4core6device18TopologyCollectionE
libixpdimm-cli.so.1:_ZNK3cli9framework11UnitsOption16getCapacityUnitsB5cxx11Ev
libixpdimm-cli.so.1:_ZNK3cli9framework11UnitsOption7isEmptyEv
libixpdimm-cli.so.1:_ZNK3cli9framework11UnitsOption7isValidEv
libixpdimm-cli.so.1:_ZNK3cli9framework11YesNoPrompt11askQuestionERKNSt7__cxx1112basic_stringIcSt11char_traitsIcESaIcEEE
libixpdimm-cli.so.1:_ZNK3cli9framework11YesNoPrompt13buildQuestionERKNSt7__cxx1112basic_stringIcSt11char_traitsIcESaIcEEE
libixpdimm-cli.so.1:_ZNK3cli9framework11YesNoPrompt15isAnswerCorrectERKNSt7__cxx1112basic_stringIcSt11char_traitsIcESaIcEEE
libixpdimm-cli.so.1:_ZNK3cli9framework11YesNoPrompt6promptERKNSt7__cxx1112basic_stringIcSt11char_traitsIcESaIcEEE
libixpdimm-cli.so.1:_ZNK3cli9framework11YesNoPrompt9getAnswerB5cxx11Ev
libixpdimm-cli.so.1:_ZNK3cli9framework14ConsoleAdapter5writeERKNSt7__cxx1112basic_stringIcSt11char_traitsIcESaIcEEE
libixpdimm-cli.so.1:_ZNK3cli9framework14ConsoleAdapter7getLineB5cxx11Ev
libixpdimm-cli.so.1:_ZNK3cli9framework14DisplayOptions10getDisplayB5cxx11Ev
libixpdimm-cli.so.1:_ZNK3cli9framework14DisplayOptions5isAllEv
libixpdimm-cli.so.1:_ZNK3cli9framework14DisplayOptions8containsERKNSt7__cxx1112basic_stringIcSt11char_traitsIcESaIcEEE
libixpdimm-cli.so.1:_ZNK3cli9framework14DisplayOptions9isDefaultEv
libixpdimm-cli.so.1:check_acpi_table
libixpdimm-cli.so.1:generate_guid
libixpdimm-cli.so.1:generate_guid_str
libixpdimm-cli.so.1:get_acpi_table
libixpdimm-cli.so.1:guid_cmp
libixpdimm-cli.so.1:guid_hash
libixpdimm-cli.so.1:guid_hash_str
libixpdimm-cli.so.1:guid_to_str
libixpdimm-cli.so.1:hexdec
libixpdimm-cli.so.1:hexstr_to_int
libixpdimm-cli.so.1:int_to_hex_digits
libixpdimm-cli.so.1:print_acpi_table_header
libixpdimm-cli.so.1:registerFeatures
libixpdimm-cli.so.1:str_to_guid
libixpdimm-common.so.1:acknowledge_events
libixpdimm-common.so.1:add_config_value
libixpdimm-common.so.1:add_config_value_to_pstore
libixpdimm-common.so.1:apply_bound
libixpdimm-common.so.1:apply_bound_to_config_value
libixpdimm-common.so.1:build_fw_revision
libixpdimm-common.so.1:build_revision
libixpdimm-common.so.1:check_acpi_table
libixpdimm-common.so.1:check_admin_permissions
libixpdimm-common.so.1:close_lib_store
libixpdimm-common.so.1:common_pclose
libixpdimm-common.so.1:common_popen
libixpdimm-common.so.1:compress_file
libixpdimm-common.so.1:convert_datetime_string_to_seconds
libixpdimm-common.so.1:convert_fw_version_str_to_array
libixpdimm-common.so.1:convert_seconds_to_datetime
libixpdimm-common.so.1:convert_seconds_to_datetime_interval
libixpdimm-common.so.1:copy_buffer_to_file
libixpdimm-common.so.1:copy_file
libixpdimm-common.so.1:copy_file_to_buffer
libixpdimm-common.so.1:create_PersistentStore
libixpdimm-common.so.1:create_default_config
libixpdimm-common.so.1:create_dir
libixpdimm-common.so.1:create_file
libixpdimm-common.so.1:create_thread
libixpdimm-common.so.1:create_trunc_file
libixpdimm-common.so.1:csv_log_close
libixpdimm-common.so.1:csv_log_init
libixpdimm-common.so.1:csv_write_log
libixpdimm-common.so.1:db_add_boot_status_register
libixpdimm-common.so.1:db_add_config
libixpdimm-common.so.1:db_add_device_characteristics
libixpdimm-common.so.1:db_add_dimm_alarm_thresholds
libixpdimm-common.so.1:db_add_dimm_ars_command_specific_data
libixpdimm-common.so.1:db_add_dimm_config_input
libixpdimm-common.so.1:db_add_dimm_config_output
libixpdimm-common.so.1:db_add_dimm_current_config
libixpdimm-common.so.1:db_add_dimm_details
libixpdimm-common.so.1:db_add_dimm_die_sparing
libixpdimm-common.so.1:db_add_dimm_erasure_coding
libixpdimm-common.so.1:db_add_dimm_err_correction
libixpdimm-common.so.1:db_add_dimm_fw_debug_log
libixpdimm-common.so.1:db_add_dimm_fw_image
libixpdimm-common.so.1:db_add_dimm_fw_log_level
libixpdimm-common.so.1:db_add_dimm_fw_time
libixpdimm-common.so.1:db_add_dimm_interleave_set
libixpdimm-common.so.1:db_add_dimm_long_op_status
libixpdimm-common.so.1:db_add_dimm_memory_info_page0
libixpdimm-common.so.1:db_add_dimm_memory_info_page1
libixpdimm-common.so.1:db_add_dimm_optional_config_data
libixpdimm-common.so.1:db_add_dimm_partition
libixpdimm-common.so.1:db_add_dimm_partition_change
libixpdimm-common.so.1:db_add_dimm_platform_config
libixpdimm-common.so.1:db_add_dimm_power_management
libixpdimm-common.so.1:db_add_dimm_sanitize_info
libixpdimm-common.so.1:db_add_dimm_security_info
libixpdimm-common.so.1:db_add_dimm_smart
libixpdimm-common.so.1:db_add_dimm_state
libixpdimm-common.so.1:db_add_dimm_thermal
libixpdimm-common.so.1:db_add_dimm_topology
libixpdimm-common.so.1:db_add_driver_capabilities
libixpdimm-common.so.1:db_add_driver_features
libixpdimm-common.so.1:db_add_driver_metadata_check_diag_result
libixpdimm-common.so.1:db_add_eafd
libixpdimm-common.so.1:db_add_enable_error_injection_info
libixpdimm-common.so.1:db_add_event
libixpdimm-common.so.1:db_add_fw_media_high_log_entry
libixpdimm-common.so.1:db_add_fw_media_high_log_info
libixpdimm-common.so.1:db_add_fw_media_low_log_entry
libixpdimm-common.so.1:db_add_fw_media_low_log_info
libixpdimm-common.so.1:db_add_fw_thermal_high_log_entry
libixpdimm-common.so.1:db_add_fw_thermal_high_log_info
libixpdimm-common.so.1:db_add_fw_thermal_low_log_entry
libixpdimm-common.so.1:db_add_fw_thermal_low_log_info
libixpdimm-common.so.1:db_add_history
libixpdimm-common.so.1:db_add_host
libixpdimm-common.so.1:db_add_identify_dimm
libixpdimm-common.so.1:db_add_interleave_capability
libixpdimm-common.so.1:db_add_interleave_set
libixpdimm-common.so.1:db_add_interleave_set_dimm_info_v1
libixpdimm-common.so.1:db_add_interleave_set_dimm_info_v2
libixpdimm-common.so.1:db_add_log
libixpdimm-common.so.1:db_add_namespace
libixpdimm-common.so.1:db_add_namespace_state
libixpdimm-common.so.1:db_add_performance
libixpdimm-common.so.1:db_add_platform_capabilities
libixpdimm-common.so.1:db_add_platform_info_capability
libixpdimm-common.so.1:db_add_poison_error_injection_info
libixpdimm-common.so.1:db_add_runtime_config_validation
libixpdimm-common.so.1:db_add_socket
libixpdimm-common.so.1:db_add_socket_sku
libixpdimm-common.so.1:db_add_software_trigger_info
libixpdimm-common.so.1:db_add_sw_inventory
libixpdimm-common.so.1:db_add_temperature_error_injection_info
libixpdimm-common.so.1:db_add_topology_state
libixpdimm-common.so.1:db_begin_transaction
libixpdimm-common.so.1:db_clear_history
libixpdimm-common.so.1:db_clear_identify_dimm_serial_num
libixpdimm-common.so.1:db_clear_interleave_set_dimm_info_v1_serial_num
libixpdimm-common.so.1:db_clear_state
libixpdimm-common.so.1:db_delete_all_boot_status_registers
libixpdimm-common.so.1:db_delete_all_configs
libixpdimm-common.so.1:db_delete_all_device_characteristicss
libixpdimm-common.so.1:db_delete_all_dimm_alarm_thresholdss
libixpdimm-common.so.1:db_delete_all_dimm_ars_command_specific_datas
libixpdimm-common.so.1:db_delete_all_dimm_config_inputs
libixpdimm-common.so.1:db_delete_all_dimm_config_outputs
libixpdimm-common.so.1:db_delete_all_dimm_current_configs
libixpdimm-common.so.1:db_delete_all_dimm_detailss
libixpdimm-common.so.1:db_delete_all_dimm_die_sparings
libixpdimm-common.so.1:db_delete_all_dimm_erasure_codings
libixpdimm-common.so.1:db_delete_all_dimm_err_corrections
libixpdimm-common.so.1:db_delete_all_dimm_fw_debug_logs
libixpdimm-common.so.1:db_delete_all_dimm_fw_images
libixpdimm-common.so.1:db_delete_all_dimm_fw_log_levels
libixpdimm-common.so.1:db_delete_all_dimm_fw_times
libixpdimm-common.so.1:db_delete_all_dimm_interleave_sets
libixpdimm-common.so.1:db_delete_all_dimm_long_op_statuss
libixpdimm-common.so.1:db_delete_all_dimm_memory_info_page0s
libixpdimm-common.so.1:db_delete_all_dimm_memory_info_page1s
libixpdimm-common.so.1:db_delete_all_dimm_optional_config_datas
libixpdimm-common.so.1:db_delete_all_dimm_partition_changes
libixpdimm-common.so.1:db_delete_all_dimm_partitions
libixpdimm-common.so.1:db_delete_all_dimm_platform_configs
libixpdimm-common.so.1:db_delete_all_dimm_power_managements
libixpdimm-common.so.1:db_delete_all_dimm_sanitize_infos
libixpdimm-common.so.1:db_delete_all_dimm_security_infos
libixpdimm-common.so.1:db_delete_all_dimm_smarts
libixpdimm-common.so.1:db_delete_all_dimm_states
libixpdimm-common.so.1:db_delete_all_dimm_thermals
libixpdimm-common.so.1:db_delete_all_dimm_topologys
libixpdimm-common.so.1:db_delete_all_driver_capabilitiess
libixpdimm-common.so.1:db_delete_all_driver_featuress
libixpdimm-common.so.1:db_delete_all_driver_metadata_check_diag_results
libixpdimm-common.so.1:db_delete_all_eafds
libixpdimm-common.so.1:db_delete_all_enable_error_injection_infos
libixpdimm-common.so.1:db_delete_all_events
libixpdimm-common.so.1:db_delete_all_fw_media_high_log_entrys
libixpdimm-common.so.1:db_delete_all_fw_media_high_log_infos
libixpdimm-common.so.1:db_delete_all_fw_media_low_log_entrys
libixpdimm-common.so.1:db_delete_all_fw_media_low_log_infos
libixpdimm-common.so.1:db_delete_all_fw_thermal_high_log_entrys
libixpdimm-common.so.1:db_delete_all_fw_thermal_high_log_infos
libixpdimm-common.so.1:db_delete_all_fw_thermal_low_log_entrys
libixpdimm-common.so.1:db_delete_all_fw_thermal_low_log_infos
libixpdimm-common.so.1:db_delete_all_hosts
libixpdimm-common.so.1:db_delete_all_identify_dimms
libixpdimm-common.so.1:db_delete_all_interleave_capabilitys
libixpdimm-common.so.1:db_delete_all_interleave_set_dimm_info_v1s
libixpdimm-common.so.1:db_delete_all_interleave_set_dimm_info_v2s
libixpdimm-common.so.1:db_delete_all_interleave_sets
libixpdimm-common.so.1:db_delete_all_logs
libixpdimm-common.so.1:db_delete_all_namespace_states
libixpdimm-common.so.1:db_delete_all_namespaces
libixpdimm-common.so.1:db_delete_all_performances
libixpdimm-common.so.1:db_delete_all_platform_capabilitiess
libixpdimm-common.so.1:db_delete_all_platform_info_capabilitys
libixpdimm-common.so.1:db_delete_all_poison_error_injection_infos
libixpdimm-common.so.1:db_delete_all_runtime_config_validations
libixpdimm-common.so.1:db_delete_all_socket_skus
libixpdimm-common.so.1:db_delete_all_sockets
libixpdimm-common.so.1:db_delete_all_software_trigger_infos
libixpdimm-common.so.1:db_delete_all_sw_inventorys
libixpdimm-common.so.1:db_delete_all_temperature_error_injection_infos
libixpdimm-common.so.1:db_delete_all_topology_states
libixpdimm-common.so.1:db_delete_boot_status_register_by_device_handle
libixpdimm-common.so.1:db_delete_config_by_key
libixpdimm-common.so.1:db_delete_device_characteristics_by_device_handle
libixpdimm-common.so.1:db_delete_device_characteristics_history
libixpdimm-common.so.1:db_delete_dimm_alarm_thresholds_by_device_handle
libixpdimm-common.so.1:db_delete_dimm_alarm_thresholds_history
libixpdimm-common.so.1:db_delete_dimm_ars_command_specific_data_by_device_handle
libixpdimm-common.so.1:db_delete_dimm_ars_command_specific_data_history
libixpdimm-common.so.1:db_delete_dimm_config_input_by_device_handle
libixpdimm-common.so.1:db_delete_dimm_config_input_history
libixpdimm-common.so.1:db_delete_dimm_config_output_by_device_handle
libixpdimm-common.so.1:db_delete_dimm_config_output_history
libixpdimm-common.so.1:db_delete_dimm_current_config_by_device_handle
libixpdimm-common.so.1:db_delete_dimm_current_config_history
libixpdimm-common.so.1:db_delete_dimm_details_by_id
libixpdimm-common.so.1:db_delete_dimm_details_history
libixpdimm-common.so.1:db_delete_dimm_die_sparing_by_device_handle
libixpdimm-common.so.1:db_delete_dimm_die_sparing_history
libixpdimm-common.so.1:db_delete_dimm_erasure_coding_by_device_handle
libixpdimm-common.so.1:db_delete_dimm_erasure_coding_history
libixpdimm-common.so.1:db_delete_dimm_err_correction_by_device_handle
libixpdimm-common.so.1:db_delete_dimm_err_correction_history
libixpdimm-common.so.1:db_delete_dimm_fw_debug_log_by_dimm_topology_device_handle
libixpdimm-common.so.1:db_delete_dimm_fw_debug_log_by_fw_log
libixpdimm-common.so.1:db_delete_dimm_fw_debug_log_history
libixpdimm-common.so.1:db_delete_dimm_fw_image_by_device_handle
libixpdimm-common.so.1:db_delete_dimm_fw_image_history
libixpdimm-common.so.1:db_delete_dimm_fw_log_level_by_device_handle
libixpdimm-common.so.1:db_delete_dimm_fw_log_level_history
libixpdimm-common.so.1:db_delete_dimm_fw_time_by_device_handle
libixpdimm-common.so.1:db_delete_dimm_fw_time_history
libixpdimm-common.so.1:db_delete_dimm_interleave_set_by_dimm_topology_device_handle
libixpdimm-common.so.1:db_delete_dimm_interleave_set_by_id
libixpdimm-common.so.1:db_delete_dimm_interleave_set_history
libixpdimm-common.so.1:db_delete_dimm_long_op_status_by_device_handle
libixpdimm-common.so.1:db_delete_dimm_long_op_status_history
libixpdimm-common.so.1:db_delete_dimm_memory_info_page0_by_device_handle
libixpdimm-common.so.1:db_delete_dimm_memory_info_page0_history
libixpdimm-common.so.1:db_delete_dimm_memory_info_page1_by_device_handle
libixpdimm-common.so.1:db_delete_dimm_memory_info_page1_history
libixpdimm-common.so.1:db_delete_dimm_optional_config_data_by_device_handle
libixpdimm-common.so.1:db_delete_dimm_optional_config_data_history
libixpdimm-common.so.1:db_delete_dimm_partition_by_device_handle
libixpdimm-common.so.1:db_delete_dimm_partition_change_by_dimm_topology_device_handle
libixpdimm-common.so.1:db_delete_dimm_partition_change_by_id
libixpdimm-common.so.1:db_delete_dimm_partition_change_history
libixpdimm-common.so.1:db_delete_dimm_partition_history
libixpdimm-common.so.1:db_delete_dimm_platform_config_by_device_handle
libixpdimm-common.so.1:db_delete_dimm_platform_config_history
libixpdimm-common.so.1:db_delete_dimm_power_management_by_device_handle
libixpdimm-common.so.1:db_delete_dimm_power_management_history
libixpdimm-common.so.1:db_delete_dimm_sanitize_info_by_device_handle
libixpdimm-common.so.1:db_delete_dimm_sanitize_info_history
libixpdimm-common.so.1:db_delete_dimm_security_info_by_device_handle
libixpdimm-common.so.1:db_delete_dimm_security_info_history
libixpdimm-common.so.1:db_delete_dimm_smart_by_device_handle
libixpdimm-common.so.1:db_delete_dimm_smart_history
libixpdimm-common.so.1:db_delete_dimm_state_by_device_handle
libixpdimm-common.so.1:db_delete_dimm_thermal_by_device_handle
libixpdimm-common.so.1:db_delete_dimm_thermal_history
libixpdimm-common.so.1:db_delete_dimm_topology_by_device_handle
libixpdimm-common.so.1:db_delete_dimm_topology_history
libixpdimm-common.so.1:db_delete_driver_capabilities_by_id
libixpdimm-common.so.1:db_delete_driver_capabilities_history
libixpdimm-common.so.1:db_delete_driver_features_by_id
libixpdimm-common.so.1:db_delete_driver_features_history
libixpdimm-common.so.1:db_delete_driver_metadata_check_diag_result_by_id
libixpdimm-common.so.1:db_delete_eafd_by_device_handle
libixpdimm-common.so.1:db_delete_enable_error_injection_info_by_device_handle
libixpdimm-common.so.1:db_delete_enable_error_injection_info_history
libixpdimm-common.so.1:db_delete_event_by_event_type_type
libixpdimm-common.so.1:db_delete_event_by_id
libixpdimm-common.so.1:db_delete_fw_media_high_log_entry_by_dimm_topology_device_handle
libixpdimm-common.so.1:db_delete_fw_media_high_log_entry_by_system_timestamp
libixpdimm-common.so.1:db_delete_fw_media_high_log_entry_history
libixpdimm-common.so.1:db_delete_fw_media_high_log_info_by_device_handle
libixpdimm-common.so.1:db_delete_fw_media_high_log_info_history
libixpdimm-common.so.1:db_delete_fw_media_low_log_entry_by_dimm_topology_device_handle
libixpdimm-common.so.1:db_delete_fw_media_low_log_entry_by_system_timestamp
libixpdimm-common.so.1:db_delete_fw_media_low_log_entry_history
libixpdimm-common.so.1:db_delete_fw_media_low_log_info_by_device_handle
libixpdimm-common.so.1:db_delete_fw_media_low_log_info_history
libixpdimm-common.so.1:db_delete_fw_thermal_high_log_entry_by_dimm_topology_device_handle
libixpdimm-common.so.1:db_delete_fw_thermal_high_log_entry_by_system_timestamp
libixpdimm-common.so.1:db_delete_fw_thermal_high_log_entry_history
libixpdimm-common.so.1:db_delete_fw_thermal_high_log_info_by_device_handle
libixpdimm-common.so.1:db_delete_fw_thermal_high_log_info_history
libixpdimm-common.so.1:db_delete_fw_thermal_low_log_entry_by_dimm_topology_device_handle
libixpdimm-common.so.1:db_delete_fw_thermal_low_log_entry_by_system_timestamp
libixpdimm-common.so.1:db_delete_fw_thermal_low_log_entry_history
libixpdimm-common.so.1:db_delete_fw_thermal_low_log_info_by_device_handle
libixpdimm-common.so.1:db_delete_fw_thermal_low_log_info_history
libixpdimm-common.so.1:db_delete_host_by_name
libixpdimm-common.so.1:db_delete_host_history
libixpdimm-common.so.1:db_delete_identify_dimm_by_device_handle
libixpdimm-common.so.1:db_delete_identify_dimm_history
libixpdimm-common.so.1:db_delete_interleave_capability_by_id
libixpdimm-common.so.1:db_delete_interleave_capability_history
libixpdimm-common.so.1:db_delete_interleave_set_by_dimm_interleave_set_index_id
libixpdimm-common.so.1:db_delete_interleave_set_by_id
libixpdimm-common.so.1:db_delete_interleave_set_dimm_info_v1_by_dimm_interleave_set_index_id
libixpdimm-common.so.1:db_delete_interleave_set_dimm_info_v1_by_dimm_topology_device_handle
libixpdimm-common.so.1:db_delete_interleave_set_dimm_info_v1_by_id
libixpdimm-common.so.1:db_delete_interleave_set_dimm_info_v1_history
libixpdimm-common.so.1:db_delete_interleave_set_dimm_info_v2_by_dimm_interleave_set_index_id
libixpdimm-common.so.1:db_delete_interleave_set_dimm_info_v2_by_dimm_topology_device_handle
libixpdimm-common.so.1:db_delete_interleave_set_dimm_info_v2_by_id
libixpdimm-common.so.1:db_delete_interleave_set_dimm_info_v2_history
libixpdimm-common.so.1:db_delete_interleave_set_history
libixpdimm-common.so.1:db_delete_log_by_id
libixpdimm-common.so.1:db_delete_namespace_by_dimm_interleave_set_index_id
libixpdimm-common.so.1:db_delete_namespace_by_dimm_topology_device_handle
libixpdimm-common.so.1:db_delete_namespace_by_namespace_uid
libixpdimm-common.so.1:db_delete_namespace_history
libixpdimm-common.so.1:db_delete_namespace_state_by_namespace_uid
libixpdimm-common.so.1:db_delete_performance_by_id
libixpdimm-common.so.1:db_delete_platform_capabilities_by_signature
libixpdimm-common.so.1:db_delete_platform_capabilities_history
libixpdimm-common.so.1:db_delete_platform_info_capability_by_id
libixpdimm-common.so.1:db_delete_platform_info_capability_history
libixpdimm-common.so.1:db_delete_poison_error_injection_info_by_dimm_topology_device_handle
libixpdimm-common.so.1:db_delete_poison_error_injection_info_by_id
libixpdimm-common.so.1:db_delete_poison_error_injection_info_history
libixpdimm-common.so.1:db_delete_runtime_config_validation_by_id
libixpdimm-common.so.1:db_delete_runtime_config_validation_history
libixpdimm-common.so.1:db_delete_socket_by_id
libixpdimm-common.so.1:db_delete_socket_history
libixpdimm-common.so.1:db_delete_socket_sku_by_node_id
libixpdimm-common.so.1:db_delete_socket_sku_history
libixpdimm-common.so.1:db_delete_software_trigger_info_by_device_handle
libixpdimm-common.so.1:db_delete_software_trigger_info_history
libixpdimm-common.so.1:db_delete_sw_inventory_by_name
libixpdimm-common.so.1:db_delete_sw_inventory_history
libixpdimm-common.so.1:db_delete_temperature_error_injection_info_by_device_handle
libixpdimm-common.so.1:db_delete_temperature_error_injection_info_history
libixpdimm-common.so.1:db_delete_topology_state_by_device_handle
libixpdimm-common.so.1:db_end_transaction
libixpdimm-common.so.1:db_get_boot_status_register_by_device_handle
libixpdimm-common.so.1:db_get_boot_status_register_count
libixpdimm-common.so.1:db_get_boot_status_registers
libixpdimm-common.so.1:db_get_config_by_key
libixpdimm-common.so.1:db_get_config_count
libixpdimm-common.so.1:db_get_configs
libixpdimm-common.so.1:db_get_device_characteristics_by_device_handle
libixpdimm-common.so.1:db_get_device_characteristics_count
libixpdimm-common.so.1:db_get_device_characteristics_history_by_history_id
libixpdimm-common.so.1:db_get_device_characteristics_history_by_history_id_count
libixpdimm-common.so.1:db_get_device_characteristics_history_count
libixpdimm-common.so.1:db_get_device_characteristicss
libixpdimm-common.so.1:db_get_dimm_alarm_thresholds_by_device_handle
libixpdimm-common.so.1:db_get_dimm_alarm_thresholds_count
libixpdimm-common.so.1:db_get_dimm_alarm_thresholds_history_by_history_id
libixpdimm-common.so.1:db_get_dimm_alarm_thresholds_history_by_history_id_count
libixpdimm-common.so.1:db_get_dimm_alarm_thresholds_history_count
libixpdimm-common.so.1:db_get_dimm_alarm_thresholdss
libixpdimm-common.so.1:db_get_dimm_ars_command_specific_data_by_device_handle
libixpdimm-common.so.1:db_get_dimm_ars_command_specific_data_count
libixpdimm-common.so.1:db_get_dimm_ars_command_specific_data_history_by_history_id
libixpdimm-common.so.1:db_get_dimm_ars_command_specific_data_history_by_history_id_count
libixpdimm-common.so.1:db_get_dimm_ars_command_specific_data_history_count
libixpdimm-common.so.1:db_get_dimm_ars_command_specific_datas
libixpdimm-common.so.1:db_get_dimm_config_input_by_device_handle
libixpdimm-common.so.1:db_get_dimm_config_input_count
libixpdimm-common.so.1:db_get_dimm_config_input_history_by_history_id
libixpdimm-common.so.1:db_get_dimm_config_input_history_by_history_id_count
libixpdimm-common.so.1:db_get_dimm_config_input_history_count
libixpdimm-common.so.1:db_get_dimm_config_inputs
libixpdimm-common.so.1:db_get_dimm_config_output_by_device_handle
libixpdimm-common.so.1:db_get_dimm_config_output_count
libixpdimm-common.so.1:db_get_dimm_config_output_history_by_history_id
libixpdimm-common.so.1:db_get_dimm_config_output_history_by_history_id_count
libixpdimm-common.so.1:db_get_dimm_config_output_history_count
libixpdimm-common.so.1:db_get_dimm_config_outputs
libixpdimm-common.so.1:db_get_dimm_current_config_by_device_handle
libixpdimm-common.so.1:db_get_dimm_current_config_count
libixpdimm-common.so.1:db_get_dimm_current_config_history_by_history_id
libixpdimm-common.so.1:db_get_dimm_current_config_history_by_history_id_count
libixpdimm-common.so.1:db_get_dimm_current_config_history_count
libixpdimm-common.so.1:db_get_dimm_current_configs
libixpdimm-common.so.1:db_get_dimm_details_by_id
libixpdimm-common.so.1:db_get_dimm_details_count
libixpdimm-common.so.1:db_get_dimm_details_history_by_history_id
libixpdimm-common.so.1:db_get_dimm_details_history_by_history_id_count
libixpdimm-common.so.1:db_get_dimm_details_history_count
libixpdimm-common.so.1:db_get_dimm_detailss
libixpdimm-common.so.1:db_get_dimm_die_sparing_by_device_handle
libixpdimm-common.so.1:db_get_dimm_die_sparing_count
libixpdimm-common.so.1:db_get_dimm_die_sparing_history_by_history_id
libixpdimm-common.so.1:db_get_dimm_die_sparing_history_by_history_id_count
libixpdimm-common.so.1:db_get_dimm_die_sparing_history_count
libixpdimm-common.so.1:db_get_dimm_die_sparings
libixpdimm-common.so.1:db_get_dimm_erasure_coding_by_device_handle
libixpdimm-common.so.1:db_get_dimm_erasure_coding_count
libixpdimm-common.so.1:db_get_dimm_erasure_coding_history_by_history_id
libixpdimm-common.so.1:db_get_dimm_erasure_coding_history_by_history_id_count
libixpdimm-common.so.1:db_get_dimm_erasure_coding_history_count
libixpdimm-common.so.1:db_get_dimm_erasure_codings
libixpdimm-common.so.1:db_get_dimm_err_correction_by_device_handle
libixpdimm-common.so.1:db_get_dimm_err_correction_count
libixpdimm-common.so.1:db_get_dimm_err_correction_history_by_history_id
libixpdimm-common.so.1:db_get_dimm_err_correction_history_by_history_id_count
libixpdimm-common.so.1:db_get_dimm_err_correction_history_count
libixpdimm-common.so.1:db_get_dimm_err_corrections
libixpdimm-common.so.1:db_get_dimm_fw_debug_log_by_fw_log
libixpdimm-common.so.1:db_get_dimm_fw_debug_log_count
libixpdimm-common.so.1:db_get_dimm_fw_debug_log_count_by_dimm_topology_device_handle
libixpdimm-common.so.1:db_get_dimm_fw_debug_log_count_by_dimm_topology_device_handle_history
libixpdimm-common.so.1:db_get_dimm_fw_debug_log_history_by_history_id
libixpdimm-common.so.1:db_get_dimm_fw_debug_log_history_by_history_id_count
libixpdimm-common.so.1:db_get_dimm_fw_debug_log_history_count
libixpdimm-common.so.1:db_get_dimm_fw_debug_logs
libixpdimm-common.so.1:db_get_dimm_fw_debug_logs_by_dimm_topology_device_handle
libixpdimm-common.so.1:db_get_dimm_fw_debug_logs_by_dimm_topology_device_handle_history
libixpdimm-common.so.1:db_get_dimm_fw_image_by_device_handle
libixpdimm-common.so.1:db_get_dimm_fw_image_count
libixpdimm-common.so.1:db_get_dimm_fw_image_history_by_history_id
libixpdimm-common.so.1:db_get_dimm_fw_image_history_by_history_id_count
libixpdimm-common.so.1:db_get_dimm_fw_image_history_count
libixpdimm-common.so.1:db_get_dimm_fw_images
libixpdimm-common.so.1:db_get_dimm_fw_log_level_by_device_handle
libixpdimm-common.so.1:db_get_dimm_fw_log_level_count
libixpdimm-common.so.1:db_get_dimm_fw_log_level_history_by_history_id
libixpdimm-common.so.1:db_get_dimm_fw_log_level_history_by_history_id_count
libixpdimm-common.so.1:db_get_dimm_fw_log_level_history_count
libixpdimm-common.so.1:db_get_dimm_fw_log_levels
libixpdimm-common.so.1:db_get_dimm_fw_time_by_device_handle
libixpdimm-common.so.1:db_get_dimm_fw_time_count
libixpdimm-common.so.1:db_get_dimm_fw_time_history_by_history_id
libixpdimm-common.so.1:db_get_dimm_fw_time_history_by_history_id_count
libixpdimm-common.so.1:db_get_dimm_fw_time_history_count
libixpdimm-common.so.1:db_get_dimm_fw_times
libixpdimm-common.so.1:db_get_dimm_interleave_set_by_id
libixpdimm-common.so.1:db_get_dimm_interleave_set_count
libixpdimm-common.so.1:db_get_dimm_interleave_set_count_by_dimm_topology_device_handle
libixpdimm-common.so.1:db_get_dimm_interleave_set_count_by_dimm_topology_device_handle_history
libixpdimm-common.so.1:db_get_dimm_interleave_set_history_by_history_id
libixpdimm-common.so.1:db_get_dimm_interleave_set_history_by_history_id_count
libixpdimm-common.so.1:db_get_dimm_interleave_set_history_count
libixpdimm-common.so.1:db_get_dimm_interleave_sets
libixpdimm-common.so.1:db_get_dimm_interleave_sets_by_dimm_topology_device_handle
libixpdimm-common.so.1:db_get_dimm_interleave_sets_by_dimm_topology_device_handle_history
libixpdimm-common.so.1:db_get_dimm_long_op_status_by_device_handle
libixpdimm-common.so.1:db_get_dimm_long_op_status_count
libixpdimm-common.so.1:db_get_dimm_long_op_status_history_by_history_id
libixpdimm-common.so.1:db_get_dimm_long_op_status_history_by_history_id_count
libixpdimm-common.so.1:db_get_dimm_long_op_status_history_count
libixpdimm-common.so.1:db_get_dimm_long_op_statuss
libixpdimm-common.so.1:db_get_dimm_memory_info_page0_by_device_handle
libixpdimm-common.so.1:db_get_dimm_memory_info_page0_count
libixpdimm-common.so.1:db_get_dimm_memory_info_page0_history_by_history_id
libixpdimm-common.so.1:db_get_dimm_memory_info_page0_history_by_history_id_count
libixpdimm-common.so.1:db_get_dimm_memory_info_page0_history_count
libixpdimm-common.so.1:db_get_dimm_memory_info_page0s
libixpdimm-common.so.1:db_get_dimm_memory_info_page1_by_device_handle
libixpdimm-common.so.1:db_get_dimm_memory_info_page1_count
libixpdimm-common.so.1:db_get_dimm_memory_info_page1_history_by_history_id
libixpdimm-common.so.1:db_get_dimm_memory_info_page1_history_by_history_id_count
libixpdimm-common.so.1:db_get_dimm_memory_info_page1_history_count
libixpdimm-common.so.1:db_get_dimm_memory_info_page1s
libixpdimm-common.so.1:db_get_dimm_optional_config_data_by_device_handle
libixpdimm-common.so.1:db_get_dimm_optional_config_data_count
libixpdimm-common.so.1:db_get_dimm_optional_config_data_history_by_history_id
libixpdimm-common.so.1:db_get_dimm_optional_config_data_history_by_history_id_count
libixpdimm-common.so.1:db_get_dimm_optional_config_data_history_count
libixpdimm-common.so.1:db_get_dimm_optional_config_datas
libixpdimm-common.so.1:db_get_dimm_partition_by_device_handle
libixpdimm-common.so.1:db_get_dimm_partition_change_by_id
libixpdimm-common.so.1:db_get_dimm_partition_change_count
libixpdimm-common.so.1:db_get_dimm_partition_change_count_by_dimm_topology_device_handle
libixpdimm-common.so.1:db_get_dimm_partition_change_count_by_dimm_topology_device_handle_history
libixpdimm-common.so.1:db_get_dimm_partition_change_history_by_history_id
libixpdimm-common.so.1:db_get_dimm_partition_change_history_by_history_id_count
libixpdimm-common.so.1:db_get_dimm_partition_change_history_count
libixpdimm-common.so.1:db_get_dimm_partition_changes
libixpdimm-common.so.1:db_get_dimm_partition_changes_by_dimm_topology_device_handle
libixpdimm-common.so.1:db_get_dimm_partition_changes_by_dimm_topology_device_handle_history
libixpdimm-common.so.1:db_get_dimm_partition_count
libixpdimm-common.so.1:db_get_dimm_partition_history_by_history_id
libixpdimm-common.so.1:db_get_dimm_partition_history_by_history_id_count
libixpdimm-common.so.1:db_get_dimm_partition_history_count
libixpdimm-common.so.1:db_get_dimm_partitions
libixpdimm-common.so.1:db_get_dimm_platform_config_by_device_handle
libixpdimm-common.so.1:db_get_dimm_platform_config_count
libixpdimm-common.so.1:db_get_dimm_platform_config_history_by_history_id
libixpdimm-common.so.1:db_get_dimm_platform_config_history_by_history_id_count
libixpdimm-common.so.1:db_get_dimm_platform_config_history_count
libixpdimm-common.so.1:db_get_dimm_platform_configs
libixpdimm-common.so.1:db_get_dimm_power_management_by_device_handle
libixpdimm-common.so.1:db_get_dimm_power_management_count
libixpdimm-common.so.1:db_get_dimm_power_management_history_by_history_id
libixpdimm-common.so.1:db_get_dimm_power_management_history_by_history_id_count
libixpdimm-common.so.1:db_get_dimm_power_management_history_count
libixpdimm-common.so.1:db_get_dimm_power_managements
libixpdimm-common.so.1:db_get_dimm_sanitize_info_by_device_handle
libixpdimm-common.so.1:db_get_dimm_sanitize_info_count
libixpdimm-common.so.1:db_get_dimm_sanitize_info_history_by_history_id
libixpdimm-common.so.1:db_get_dimm_sanitize_info_history_by_history_id_count
libixpdimm-common.so.1:db_get_dimm_sanitize_info_history_count
libixpdimm-common.so.1:db_get_dimm_sanitize_infos
libixpdimm-common.so.1:db_get_dimm_security_info_by_device_handle
libixpdimm-common.so.1:db_get_dimm_security_info_count
libixpdimm-common.so.1:db_get_dimm_security_info_history_by_history_id
libixpdimm-common.so.1:db_get_dimm_security_info_history_by_history_id_count
libixpdimm-common.so.1:db_get_dimm_security_info_history_count
libixpdimm-common.so.1:db_get_dimm_security_infos
libixpdimm-common.so.1:db_get_dimm_smart_by_device_handle
libixpdimm-common.so.1:db_get_dimm_smart_count
libixpdimm-common.so.1:db_get_dimm_smart_history_by_history_id
libixpdimm-common.so.1:db_get_dimm_smart_history_by_history_id_count
libixpdimm-common.so.1:db_get_dimm_smart_history_count
libixpdimm-common.so.1:db_get_dimm_smarts
libixpdimm-common.so.1:db_get_dimm_state_by_device_handle
libixpdimm-common.so.1:db_get_dimm_state_count
libixpdimm-common.so.1:db_get_dimm_states
libixpdimm-common.so.1:db_get_dimm_thermal_by_device_handle
libixpdimm-common.so.1:db_get_dimm_thermal_count
libixpdimm-common.so.1:db_get_dimm_thermal_history_by_history_id
libixpdimm-common.so.1:db_get_dimm_thermal_history_by_history_id_count
libixpdimm-common.so.1:db_get_dimm_thermal_history_count
libixpdimm-common.so.1:db_get_dimm_thermals
libixpdimm-common.so.1:db_get_dimm_topology_by_device_handle
libixpdimm-common.so.1:db_get_dimm_topology_count
libixpdimm-common.so.1:db_get_dimm_topology_history_by_history_id
libixpdimm-common.so.1:db_get_dimm_topology_history_by_history_id_count
libixpdimm-common.so.1:db_get_dimm_topology_history_count
libixpdimm-common.so.1:db_get_dimm_topologys
libixpdimm-common.so.1:db_get_driver_capabilities_by_id
libixpdimm-common.so.1:db_get_driver_capabilities_count
libixpdimm-common.so.1:db_get_driver_capabilities_history_by_history_id
libixpdimm-common.so.1:db_get_driver_capabilities_history_by_history_id_count
libixpdimm-common.so.1:db_get_driver_capabilities_history_count
libixpdimm-common.so.1:db_get_driver_capabilitiess
libixpdimm-common.so.1:db_get_driver_features_by_id
libixpdimm-common.so.1:db_get_driver_features_count
libixpdimm-common.so.1:db_get_driver_features_history_by_history_id
libixpdimm-common.so.1:db_get_driver_features_history_by_history_id_count
libixpdimm-common.so.1:db_get_driver_features_history_count
libixpdimm-common.so.1:db_get_driver_featuress
libixpdimm-common.so.1:db_get_driver_metadata_check_diag_result_by_id
libixpdimm-common.so.1:db_get_driver_metadata_check_diag_result_count
libixpdimm-common.so.1:db_get_driver_metadata_check_diag_results
libixpdimm-common.so.1:db_get_eafd_by_device_handle
libixpdimm-common.so.1:db_get_eafd_count
libixpdimm-common.so.1:db_get_eafds
libixpdimm-common.so.1:db_get_enable_error_injection_info_by_device_handle
libixpdimm-common.so.1:db_get_enable_error_injection_info_count
libixpdimm-common.so.1:db_get_enable_error_injection_info_history_by_history_id
libixpdimm-common.so.1:db_get_enable_error_injection_info_history_by_history_id_count
libixpdimm-common.so.1:db_get_enable_error_injection_info_history_count
libixpdimm-common.so.1:db_get_enable_error_injection_infos
libixpdimm-common.so.1:db_get_event_by_id
libixpdimm-common.so.1:db_get_event_count
libixpdimm-common.so.1:db_get_event_count_by_event_type_type
libixpdimm-common.so.1:db_get_event_count_by_event_type_type_history
libixpdimm-common.so.1:db_get_events
libixpdimm-common.so.1:db_get_events_by_event_type_type
libixpdimm-common.so.1:db_get_events_by_event_type_type_history
libixpdimm-common.so.1:db_get_fw_media_high_log_entry_by_system_timestamp
libixpdimm-common.so.1:db_get_fw_media_high_log_entry_count
libixpdimm-common.so.1:db_get_fw_media_high_log_entry_count_by_dimm_topology_device_handle
libixpdimm-common.so.1:db_get_fw_media_high_log_entry_count_by_dimm_topology_device_handle_history
libixpdimm-common.so.1:db_get_fw_media_high_log_entry_history_by_history_id
libixpdimm-common.so.1:db_get_fw_media_high_log_entry_history_by_history_id_count
libixpdimm-common.so.1:db_get_fw_media_high_log_entry_history_count
libixpdimm-common.so.1:db_get_fw_media_high_log_entrys
libixpdimm-common.so.1:db_get_fw_media_high_log_entrys_by_dimm_topology_device_handle
libixpdimm-common.so.1:db_get_fw_media_high_log_entrys_by_dimm_topology_device_handle_history
libixpdimm-common.so.1:db_get_fw_media_high_log_info_by_device_handle
libixpdimm-common.so.1:db_get_fw_media_high_log_info_count
libixpdimm-common.so.1:db_get_fw_media_high_log_info_history_by_history_id
libixpdimm-common.so.1:db_get_fw_media_high_log_info_history_by_history_id_count
libixpdimm-common.so.1:db_get_fw_media_high_log_info_history_count
libixpdimm-common.so.1:db_get_fw_media_high_log_infos
libixpdimm-common.so.1:db_get_fw_media_low_log_entry_by_system_timestamp
libixpdimm-common.so.1:db_get_fw_media_low_log_entry_count
libixpdimm-common.so.1:db_get_fw_media_low_log_entry_count_by_dimm_topology_device_handle
libixpdimm-common.so.1:db_get_fw_media_low_log_entry_count_by_dimm_topology_device_handle_history
libixpdimm-common.so.1:db_get_fw_media_low_log_entry_history_by_history_id
libixpdimm-common.so.1:db_get_fw_media_low_log_entry_history_by_history_id_count
libixpdimm-common.so.1:db_get_fw_media_low_log_entry_history_count
libixpdimm-common.so.1:db_get_fw_media_low_log_entrys
libixpdimm-common.so.1:db_get_fw_media_low_log_entrys_by_dimm_topology_device_handle
libixpdimm-common.so.1:db_get_fw_media_low_log_entrys_by_dimm_topology_device_handle_history
libixpdimm-common.so.1:db_get_fw_media_low_log_info_by_device_handle
libixpdimm-common.so.1:db_get_fw_media_low_log_info_count
libixpdimm-common.so.1:db_get_fw_media_low_log_info_history_by_history_id
libixpdimm-common.so.1:db_get_fw_media_low_log_info_history_by_history_id_count
libixpdimm-common.so.1:db_get_fw_media_low_log_info_history_count
libixpdimm-common.so.1:db_get_fw_media_low_log_infos
libixpdimm-common.so.1:db_get_fw_thermal_high_log_entry_by_system_timestamp
libixpdimm-common.so.1:db_get_fw_thermal_high_log_entry_count
libixpdimm-common.so.1:db_get_fw_thermal_high_log_entry_count_by_dimm_topology_device_handle
libixpdimm-common.so.1:db_get_fw_thermal_high_log_entry_count_by_dimm_topology_device_handle_history
libixpdimm-common.so.1:db_get_fw_thermal_high_log_entry_history_by_history_id
libixpdimm-common.so.1:db_get_fw_thermal_high_log_entry_history_by_history_id_count
libixpdimm-common.so.1:db_get_fw_thermal_high_log_entry_history_count
libixpdimm-common.so.1:db_get_fw_thermal_high_log_entrys
libixpdimm-common.so.1:db_get_fw_thermal_high_log_entrys_by_dimm_topology_device_handle
libixpdimm-common.so.1:db_get_fw_thermal_high_log_entrys_by_dimm_topology_device_handle_history
libixpdimm-common.so.1:db_get_fw_thermal_high_log_info_by_device_handle
libixpdimm-common.so.1:db_get_fw_thermal_high_log_info_count
libixpdimm-common.so.1:db_get_fw_thermal_high_log_info_history_by_history_id
libixpdimm-common.so.1:db_get_fw_thermal_high_log_info_history_by_history_id_count
libixpdimm-common.so.1:db_get_fw_thermal_high_log_info_history_count
libixpdimm-common.so.1:db_get_fw_thermal_high_log_infos
libixpdimm-common.so.1:db_get_fw_thermal_low_log_entry_by_system_timestamp
libixpdimm-common.so.1:db_get_fw_thermal_low_log_entry_count
libixpdimm-common.so.1:db_get_fw_thermal_low_log_entry_count_by_dimm_topology_device_handle
libixpdimm-common.so.1:db_get_fw_thermal_low_log_entry_count_by_dimm_topology_device_handle_history
libixpdimm-common.so.1:db_get_fw_thermal_low_log_entry_history_by_history_id
libixpdimm-common.so.1:db_get_fw_thermal_low_log_entry_history_by_history_id_count
libixpdimm-common.so.1:db_get_fw_thermal_low_log_entry_history_count
libixpdimm-common.so.1:db_get_fw_thermal_low_log_entrys
libixpdimm-common.so.1:db_get_fw_thermal_low_log_entrys_by_dimm_topology_device_handle
libixpdimm-common.so.1:db_get_fw_thermal_low_log_entrys_by_dimm_topology_device_handle_history
libixpdimm-common.so.1:db_get_fw_thermal_low_log_info_by_device_handle
libixpdimm-common.so.1:db_get_fw_thermal_low_log_info_count
libixpdimm-common.so.1:db_get_fw_thermal_low_log_info_history_by_history_id
libixpdimm-common.so.1:db_get_fw_thermal_low_log_info_history_by_history_id_count
libixpdimm-common.so.1:db_get_fw_thermal_low_log_info_history_count
libixpdimm-common.so.1:db_get_fw_thermal_low_log_infos
libixpdimm-common.so.1:db_get_history_ids
libixpdimm-common.so.1:db_get_host_by_name
libixpdimm-common.so.1:db_get_host_count
libixpdimm-common.so.1:db_get_host_history_by_history_id
libixpdimm-common.so.1:db_get_host_history_by_history_id_count
libixpdimm-common.so.1:db_get_host_history_count
libixpdimm-common.so.1:db_get_hosts
libixpdimm-common.so.1:db_get_identify_dimm_by_device_handle
libixpdimm-common.so.1:db_get_identify_dimm_count
libixpdimm-common.so.1:db_get_identify_dimm_history_by_history_id
libixpdimm-common.so.1:db_get_identify_dimm_history_by_history_id_count
libixpdimm-common.so.1:db_get_identify_dimm_history_count
libixpdimm-common.so.1:db_get_identify_dimms
libixpdimm-common.so.1:db_get_interleave_capability_by_id
libixpdimm-common.so.1:db_get_interleave_capability_count
libixpdimm-common.so.1:db_get_interleave_capability_history_by_history_id
libixpdimm-common.so.1:db_get_interleave_capability_history_by_history_id_count
libixpdimm-common.so.1:db_get_interleave_capability_history_count
libixpdimm-common.so.1:db_get_interleave_capabilitys
libixpdimm-common.so.1:db_get_interleave_set_by_id
libixpdimm-common.so.1:db_get_interleave_set_count
libixpdimm-common.so.1:db_get_interleave_set_count_by_dimm_interleave_set_index_id
libixpdimm-common.so.1:db_get_interleave_set_count_by_dimm_interleave_set_index_id_history
libixpdimm-common.so.1:db_get_interleave_set_dimm_info_v1_by_id
libixpdimm-common.so.1:db_get_interleave_set_dimm_info_v1_count
libixpdimm-common.so.1:db_get_interleave_set_dimm_info_v1_count_by_dimm_interleave_set_index_id
libixpdimm-common.so.1:db_get_interleave_set_dimm_info_v1_count_by_dimm_interleave_set_index_id_history
libixpdimm-common.so.1:db_get_interleave_set_dimm_info_v1_count_by_dimm_topology_device_handle
libixpdimm-common.so.1:db_get_interleave_set_dimm_info_v1_count_by_dimm_topology_device_handle_history
libixpdimm-common.so.1:db_get_interleave_set_dimm_info_v1_history_by_history_id
libixpdimm-common.so.1:db_get_interleave_set_dimm_info_v1_history_by_history_id_count
libixpdimm-common.so.1:db_get_interleave_set_dimm_info_v1_history_count
libixpdimm-common.so.1:db_get_interleave_set_dimm_info_v1s
libixpdimm-common.so.1:db_get_interleave_set_dimm_info_v1s_by_dimm_interleave_set_index_id
libixpdimm-common.so.1:db_get_interleave_set_dimm_info_v1s_by_dimm_interleave_set_index_id_history
libixpdimm-common.so.1:db_get_interleave_set_dimm_info_v1s_by_dimm_topology_device_handle
libixpdimm-common.so.1:db_get_interleave_set_dimm_info_v1s_by_dimm_topology_device_handle_history
libixpdimm-common.so.1:db_get_interleave_set_dimm_info_v2_by_id
libixpdimm-common.so.1:db_get_interleave_set_dimm_info_v2_count
libixpdimm-common.so.1:db_get_interleave_set_dimm_info_v2_count_by_dimm_interleave_set_index_id
libixpdimm-common.so.1:db_get_interleave_set_dimm_info_v2_count_by_dimm_interleave_set_index_id_history
libixpdimm-common.so.1:db_get_interleave_set_dimm_info_v2_count_by_dimm_topology_device_handle
libixpdimm-common.so.1:db_get_interleave_set_dimm_info_v2_count_by_dimm_topology_device_handle_history
libixpdimm-common.so.1:db_get_interleave_set_dimm_info_v2_history_by_history_id
libixpdimm-common.so.1:db_get_interleave_set_dimm_info_v2_history_by_history_id_count
libixpdimm-common.so.1:db_get_interleave_set_dimm_info_v2_history_count
libixpdimm-common.so.1:db_get_interleave_set_dimm_info_v2s
libixpdimm-common.so.1:db_get_interleave_set_dimm_info_v2s_by_dimm_interleave_set_index_id
libixpdimm-common.so.1:db_get_interleave_set_dimm_info_v2s_by_dimm_interleave_set_index_id_history
libixpdimm-common.so.1:db_get_interleave_set_dimm_info_v2s_by_dimm_topology_device_handle
libixpdimm-common.so.1:db_get_interleave_set_dimm_info_v2s_by_dimm_topology_device_handle_history
libixpdimm-common.so.1:db_get_interleave_set_history_by_history_id
libixpdimm-common.so.1:db_get_interleave_set_history_by_history_id_count
libixpdimm-common.so.1:db_get_interleave_set_history_count
libixpdimm-common.so.1:db_get_interleave_sets
libixpdimm-common.so.1:db_get_interleave_sets_by_dimm_interleave_set_index_id
libixpdimm-common.so.1:db_get_interleave_sets_by_dimm_interleave_set_index_id_history
libixpdimm-common.so.1:db_get_log_by_id
libixpdimm-common.so.1:db_get_log_count
libixpdimm-common.so.1:db_get_logs
libixpdimm-common.so.1:db_get_namespace_by_namespace_uid
libixpdimm-common.so.1:db_get_namespace_count
libixpdimm-common.so.1:db_get_namespace_count_by_dimm_interleave_set_index_id
libixpdimm-common.so.1:db_get_namespace_count_by_dimm_interleave_set_index_id_history
libixpdimm-common.so.1:db_get_namespace_count_by_dimm_topology_device_handle
libixpdimm-common.so.1:db_get_namespace_count_by_dimm_topology_device_handle_history
libixpdimm-common.so.1:db_get_namespace_history_by_history_id
libixpdimm-common.so.1:db_get_namespace_history_by_history_id_count
libixpdimm-common.so.1:db_get_namespace_history_count
libixpdimm-common.so.1:db_get_namespace_state_by_namespace_uid
libixpdimm-common.so.1:db_get_namespace_state_count
libixpdimm-common.so.1:db_get_namespace_states
libixpdimm-common.so.1:db_get_namespaces
libixpdimm-common.so.1:db_get_namespaces_by_dimm_interleave_set_index_id
libixpdimm-common.so.1:db_get_namespaces_by_dimm_interleave_set_index_id_history
libixpdimm-common.so.1:db_get_namespaces_by_dimm_topology_device_handle
libixpdimm-common.so.1:db_get_namespaces_by_dimm_topology_device_handle_history
libixpdimm-common.so.1:db_get_next_dimm_interleave_set_id
libixpdimm-common.so.1:db_get_next_dimm_partition_change_id
libixpdimm-common.so.1:db_get_next_interleave_capability_id
libixpdimm-common.so.1:db_get_next_interleave_set_dimm_info_v1_id
libixpdimm-common.so.1:db_get_next_interleave_set_dimm_info_v2_id
libixpdimm-common.so.1:db_get_next_interleave_set_id
libixpdimm-common.so.1:db_get_next_platform_info_capability_id
libixpdimm-common.so.1:db_get_next_runtime_config_validation_id
libixpdimm-common.so.1:db_get_performance_by_id
libixpdimm-common.so.1:db_get_performance_count
libixpdimm-common.so.1:db_get_performances
libixpdimm-common.so.1:db_get_platform_capabilities_by_signature
libixpdimm-common.so.1:db_get_platform_capabilities_count
libixpdimm-common.so.1:db_get_platform_capabilities_history_by_history_id
libixpdimm-common.so.1:db_get_platform_capabilities_history_by_history_id_count
libixpdimm-common.so.1:db_get_platform_capabilities_history_count
libixpdimm-common.so.1:db_get_platform_capabilitiess
libixpdimm-common.so.1:db_get_platform_info_capability_by_id
libixpdimm-common.so.1:db_get_platform_info_capability_count
libixpdimm-common.so.1:db_get_platform_info_capability_history_by_history_id
libixpdimm-common.so.1:db_get_platform_info_capability_history_by_history_id_count
libixpdimm-common.so.1:db_get_platform_info_capability_history_count
libixpdimm-common.so.1:db_get_platform_info_capabilitys
libixpdimm-common.so.1:db_get_poison_error_injection_info_by_id
libixpdimm-common.so.1:db_get_poison_error_injection_info_count
libixpdimm-common.so.1:db_get_poison_error_injection_info_count_by_dimm_topology_device_handle
libixpdimm-common.so.1:db_get_poison_error_injection_info_count_by_dimm_topology_device_handle_history
libixpdimm-common.so.1:db_get_poison_error_injection_info_history_by_history_id
libixpdimm-common.so.1:db_get_poison_error_injection_info_history_by_history_id_count
libixpdimm-common.so.1:db_get_poison_error_injection_info_history_count
libixpdimm-common.so.1:db_get_poison_error_injection_infos
libixpdimm-common.so.1:db_get_poison_error_injection_infos_by_dimm_topology_device_handle
libixpdimm-common.so.1:db_get_poison_error_injection_infos_by_dimm_topology_device_handle_history
libixpdimm-common.so.1:db_get_runtime_config_validation_by_id
libixpdimm-common.so.1:db_get_runtime_config_validation_count
libixpdimm-common.so.1:db_get_runtime_config_validation_history_by_history_id
libixpdimm-common.so.1:db_get_runtime_config_validation_history_by_history_id_count
libixpdimm-common.so.1:db_get_runtime_config_validation_history_count
libixpdimm-common.so.1:db_get_runtime_config_validations
libixpdimm-common.so.1:db_get_socket_by_id
libixpdimm-common.so.1:db_get_socket_count
libixpdimm-common.so.1:db_get_socket_history_by_history_id
libixpdimm-common.so.1:db_get_socket_history_by_history_id_count
libixpdimm-common.so.1:db_get_socket_history_count
libixpdimm-common.so.1:db_get_socket_sku_by_node_id
libixpdimm-common.so.1:db_get_socket_sku_count
libixpdimm-common.so.1:db_get_socket_sku_history_by_history_id
libixpdimm-common.so.1:db_get_socket_sku_history_by_history_id_count
libixpdimm-common.so.1:db_get_socket_sku_history_count
libixpdimm-common.so.1:db_get_socket_skus
libixpdimm-common.so.1:db_get_sockets
libixpdimm-common.so.1:db_get_software_trigger_info_by_device_handle
libixpdimm-common.so.1:db_get_software_trigger_info_count
libixpdimm-common.so.1:db_get_software_trigger_info_history_by_history_id
libixpdimm-common.so.1:db_get_software_trigger_info_history_by_history_id_count
libixpdimm-common.so.1:db_get_software_trigger_info_history_count
libixpdimm-common.so.1:db_get_software_trigger_infos
libixpdimm-common.so.1:db_get_sw_inventory_by_name
libixpdimm-common.so.1:db_get_sw_inventory_count
libixpdimm-common.so.1:db_get_sw_inventory_history_by_history_id
libixpdimm-common.so.1:db_get_sw_inventory_history_by_history_id_count
libixpdimm-common.so.1:db_get_sw_inventory_history_count
libixpdimm-common.so.1:db_get_sw_inventorys
libixpdimm-common.so.1:db_get_temperature_error_injection_info_by_device_handle
libixpdimm-common.so.1:db_get_temperature_error_injection_info_count
libixpdimm-common.so.1:db_get_temperature_error_injection_info_history_by_history_id
libixpdimm-common.so.1:db_get_temperature_error_injection_info_history_by_history_id_count
libixpdimm-common.so.1:db_get_temperature_error_injection_info_history_count
libixpdimm-common.so.1:db_get_temperature_error_injection_infos
libixpdimm-common.so.1:db_get_topology_state_by_device_handle
libixpdimm-common.so.1:db_get_topology_state_count
libixpdimm-common.so.1:db_get_topology_states
libixpdimm-common.so.1:db_print_boot_status_register
libixpdimm-common.so.1:db_print_config
libixpdimm-common.so.1:db_print_device_characteristics
libixpdimm-common.so.1:db_print_dimm_alarm_thresholds
libixpdimm-common.so.1:db_print_dimm_ars_command_specific_data
libixpdimm-common.so.1:db_print_dimm_config_input
libixpdimm-common.so.1:db_print_dimm_config_output
libixpdimm-common.so.1:db_print_dimm_current_config
libixpdimm-common.so.1:db_print_dimm_details
libixpdimm-common.so.1:db_print_dimm_die_sparing
libixpdimm-common.so.1:db_print_dimm_erasure_coding
libixpdimm-common.so.1:db_print_dimm_err_correction
libixpdimm-common.so.1:db_print_dimm_fw_debug_log
libixpdimm-common.so.1:db_print_dimm_fw_image
libixpdimm-common.so.1:db_print_dimm_fw_log_level
libixpdimm-common.so.1:db_print_dimm_fw_time
libixpdimm-common.so.1:db_print_dimm_interleave_set
libixpdimm-common.so.1:db_print_dimm_long_op_status
libixpdimm-common.so.1:db_print_dimm_memory_info_page0
libixpdimm-common.so.1:db_print_dimm_memory_info_page1
libixpdimm-common.so.1:db_print_dimm_optional_config_data
libixpdimm-common.so.1:db_print_dimm_partition
libixpdimm-common.so.1:db_print_dimm_partition_change
libixpdimm-common.so.1:db_print_dimm_platform_config
libixpdimm-common.so.1:db_print_dimm_power_management
libixpdimm-common.so.1:db_print_dimm_sanitize_info
libixpdimm-common.so.1:db_print_dimm_security_info
libixpdimm-common.so.1:db_print_dimm_smart
libixpdimm-common.so.1:db_print_dimm_state
libixpdimm-common.so.1:db_print_dimm_thermal
libixpdimm-common.so.1:db_print_dimm_topology
libixpdimm-common.so.1:db_print_driver_capabilities
libixpdimm-common.so.1:db_print_driver_features
libixpdimm-common.so.1:db_print_driver_metadata_check_diag_result
libixpdimm-common.so.1:db_print_eafd
libixpdimm-common.so.1:db_print_enable_error_injection_info
libixpdimm-common.so.1:db_print_event
libixpdimm-common.so.1:db_print_fw_media_high_log_entry
libixpdimm-common.so.1:db_print_fw_media_high_log_info
libixpdimm-common.so.1:db_print_fw_media_low_log_entry
libixpdimm-common.so.1:db_print_fw_media_low_log_info
libixpdimm-common.so.1:db_print_fw_thermal_high_log_entry
libixpdimm-common.so.1:db_print_fw_thermal_high_log_info
libixpdimm-common.so.1:db_print_fw_thermal_low_log_entry
libixpdimm-common.so.1:db_print_fw_thermal_low_log_info
libixpdimm-common.so.1:db_print_host
libixpdimm-common.so.1:db_print_identify_dimm
libixpdimm-common.so.1:db_print_interleave_capability
libixpdimm-common.so.1:db_print_interleave_set
libixpdimm-common.so.1:db_print_interleave_set_dimm_info_v1
libixpdimm-common.so.1:db_print_interleave_set_dimm_info_v2
libixpdimm-common.so.1:db_print_log
libixpdimm-common.so.1:db_print_namespace
libixpdimm-common.so.1:db_print_namespace_state
libixpdimm-common.so.1:db_print_performance
libixpdimm-common.so.1:db_print_platform_capabilities
libixpdimm-common.so.1:db_print_platform_info_capability
libixpdimm-common.so.1:db_print_poison_error_injection_info
libixpdimm-common.so.1:db_print_runtime_config_validation
libixpdimm-common.so.1:db_print_socket
libixpdimm-common.so.1:db_print_socket_sku
libixpdimm-common.so.1:db_print_software_trigger_info
libixpdimm-common.so.1:db_print_sw_inventory
libixpdimm-common.so.1:db_print_temperature_error_injection_info
libixpdimm-common.so.1:db_print_topology_state
libixpdimm-common.so.1:db_roll_dimm_interleave_sets_by_id
libixpdimm-common.so.1:db_roll_dimm_partition_changes_by_id
libixpdimm-common.so.1:db_roll_history
libixpdimm-common.so.1:db_roll_interleave_capabilitys_by_id
libixpdimm-common.so.1:db_roll_interleave_set_dimm_info_v1s_by_id
libixpdimm-common.so.1:db_roll_interleave_set_dimm_info_v2s_by_id
libixpdimm-common.so.1:db_roll_interleave_sets_by_id
libixpdimm-common.so.1:db_roll_platform_info_capabilitys_by_id
libixpdimm-common.so.1:db_roll_runtime_config_validations_by_id
libixpdimm-common.so.1:db_rollback_transaction
libixpdimm-common.so.1:db_run_custom_sql
libixpdimm-common.so.1:db_save_device_characteristics_state
libixpdimm-common.so.1:db_save_dimm_alarm_thresholds_state
libixpdimm-common.so.1:db_save_dimm_ars_command_specific_data_state
libixpdimm-common.so.1:db_save_dimm_config_input_state
libixpdimm-common.so.1:db_save_dimm_config_output_state
libixpdimm-common.so.1:db_save_dimm_current_config_state
libixpdimm-common.so.1:db_save_dimm_details_state
libixpdimm-common.so.1:db_save_dimm_die_sparing_state
libixpdimm-common.so.1:db_save_dimm_erasure_coding_state
libixpdimm-common.so.1:db_save_dimm_err_correction_state
libixpdimm-common.so.1:db_save_dimm_fw_debug_log_state
libixpdimm-common.so.1:db_save_dimm_fw_image_state
libixpdimm-common.so.1:db_save_dimm_fw_log_level_state
libixpdimm-common.so.1:db_save_dimm_fw_time_state
libixpdimm-common.so.1:db_save_dimm_interleave_set_state
libixpdimm-common.so.1:db_save_dimm_long_op_status_state
libixpdimm-common.so.1:db_save_dimm_memory_info_page0_state
libixpdimm-common.so.1:db_save_dimm_memory_info_page1_state
libixpdimm-common.so.1:db_save_dimm_optional_config_data_state
libixpdimm-common.so.1:db_save_dimm_partition_change_state
libixpdimm-common.so.1:db_save_dimm_partition_state
libixpdimm-common.so.1:db_save_dimm_platform_config_state
libixpdimm-common.so.1:db_save_dimm_power_management_state
libixpdimm-common.so.1:db_save_dimm_sanitize_info_state
libixpdimm-common.so.1:db_save_dimm_security_info_state
libixpdimm-common.so.1:db_save_dimm_smart_state
libixpdimm-common.so.1:db_save_dimm_thermal_state
libixpdimm-common.so.1:db_save_dimm_topology_state
libixpdimm-common.so.1:db_save_driver_capabilities_state
libixpdimm-common.so.1:db_save_driver_features_state
libixpdimm-common.so.1:db_save_enable_error_injection_info_state
libixpdimm-common.so.1:db_save_fw_media_high_log_entry_state
libixpdimm-common.so.1:db_save_fw_media_high_log_info_state
libixpdimm-common.so.1:db_save_fw_media_low_log_entry_state
libixpdimm-common.so.1:db_save_fw_media_low_log_info_state
libixpdimm-common.so.1:db_save_fw_thermal_high_log_entry_state
libixpdimm-common.so.1:db_save_fw_thermal_high_log_info_state
libixpdimm-common.so.1:db_save_fw_thermal_low_log_entry_state
libixpdimm-common.so.1:db_save_fw_thermal_low_log_info_state
libixpdimm-common.so.1:db_save_host_state
libixpdimm-common.so.1:db_save_identify_dimm_state
libixpdimm-common.so.1:db_save_interleave_capability_state
libixpdimm-common.so.1:db_save_interleave_set_dimm_info_v1_state
libixpdimm-common.so.1:db_save_interleave_set_dimm_info_v2_state
libixpdimm-common.so.1:db_save_interleave_set_state
libixpdimm-common.so.1:db_save_namespace_state
libixpdimm-common.so.1:db_save_platform_capabilities_state
libixpdimm-common.so.1:db_save_platform_info_capability_state
libixpdimm-common.so.1:db_save_poison_error_injection_info_state
libixpdimm-common.so.1:db_save_runtime_config_validation_state
libixpdimm-common.so.1:db_save_socket_sku_state
libixpdimm-common.so.1:db_save_socket_state
libixpdimm-common.so.1:db_save_software_trigger_info_state
libixpdimm-common.so.1:db_save_sw_inventory_state
libixpdimm-common.so.1:db_save_temperature_error_injection_info_state
libixpdimm-common.so.1:db_strcpy
libixpdimm-common.so.1:db_update_boot_status_register_by_device_handle
libixpdimm-common.so.1:db_update_config_by_key
libixpdimm-common.so.1:db_update_device_characteristics_by_device_handle
libixpdimm-common.so.1:db_update_dimm_alarm_thresholds_by_device_handle
libixpdimm-common.so.1:db_update_dimm_ars_command_specific_data_by_device_handle
libixpdimm-common.so.1:db_update_dimm_config_input_by_device_handle
libixpdimm-common.so.1:db_update_dimm_config_output_by_device_handle
libixpdimm-common.so.1:db_update_dimm_current_config_by_device_handle
libixpdimm-common.so.1:db_update_dimm_details_by_id
libixpdimm-common.so.1:db_update_dimm_die_sparing_by_device_handle
libixpdimm-common.so.1:db_update_dimm_erasure_coding_by_device_handle
libixpdimm-common.so.1:db_update_dimm_err_correction_by_device_handle
libixpdimm-common.so.1:db_update_dimm_fw_debug_log_by_fw_log
libixpdimm-common.so.1:db_update_dimm_fw_image_by_device_handle
libixpdimm-common.so.1:db_update_dimm_fw_log_level_by_device_handle
libixpdimm-common.so.1:db_update_dimm_fw_time_by_device_handle
libixpdimm-common.so.1:db_update_dimm_interleave_set_by_id
libixpdimm-common.so.1:db_update_dimm_long_op_status_by_device_handle
libixpdimm-common.so.1:db_update_dimm_memory_info_page0_by_device_handle
libixpdimm-common.so.1:db_update_dimm_memory_info_page1_by_device_handle
libixpdimm-common.so.1:db_update_dimm_optional_config_data_by_device_handle
libixpdimm-common.so.1:db_update_dimm_partition_by_device_handle
libixpdimm-common.so.1:db_update_dimm_partition_change_by_id
libixpdimm-common.so.1:db_update_dimm_platform_config_by_device_handle
libixpdimm-common.so.1:db_update_dimm_power_management_by_device_handle
libixpdimm-common.so.1:db_update_dimm_sanitize_info_by_device_handle
libixpdimm-common.so.1:db_update_dimm_security_info_by_device_handle
libixpdimm-common.so.1:db_update_dimm_smart_by_device_handle
libixpdimm-common.so.1:db_update_dimm_state_by_device_handle
libixpdimm-common.so.1:db_update_dimm_thermal_by_device_handle
libixpdimm-common.so.1:db_update_dimm_topology_by_device_handle
libixpdimm-common.so.1:db_update_driver_capabilities_by_id
libixpdimm-common.so.1:db_update_driver_features_by_id
libixpdimm-common.so.1:db_update_driver_metadata_check_diag_result_by_id
libixpdimm-common.so.1:db_update_eafd_by_device_handle
libixpdimm-common.so.1:db_update_enable_error_injection_info_by_device_handle
libixpdimm-common.so.1:db_update_event_by_id
libixpdimm-common.so.1:db_update_fw_media_high_log_entry_by_system_timestamp
libixpdimm-common.so.1:db_update_fw_media_high_log_info_by_device_handle
libixpdimm-common.so.1:db_update_fw_media_low_log_entry_by_system_timestamp
libixpdimm-common.so.1:db_update_fw_media_low_log_info_by_device_handle
libixpdimm-common.so.1:db_update_fw_thermal_high_log_entry_by_system_timestamp
libixpdimm-common.so.1:db_update_fw_thermal_high_log_info_by_device_handle
libixpdimm-common.so.1:db_update_fw_thermal_low_log_entry_by_system_timestamp
libixpdimm-common.so.1:db_update_fw_thermal_low_log_info_by_device_handle
libixpdimm-common.so.1:db_update_host_by_name
libixpdimm-common.so.1:db_update_identify_dimm_by_device_handle
libixpdimm-common.so.1:db_update_interleave_capability_by_id
libixpdimm-common.so.1:db_update_interleave_set_by_id
libixpdimm-common.so.1:db_update_interleave_set_dimm_info_v1_by_id
libixpdimm-common.so.1:db_update_interleave_set_dimm_info_v2_by_id
libixpdimm-common.so.1:db_update_log_by_id
libixpdimm-common.so.1:db_update_namespace_by_namespace_uid
libixpdimm-common.so.1:db_update_namespace_state_by_namespace_uid
libixpdimm-common.so.1:db_update_performance_by_id
libixpdimm-common.so.1:db_update_platform_capabilities_by_signature
libixpdimm-common.so.1:db_update_platform_info_capability_by_id
libixpdimm-common.so.1:db_update_poison_error_injection_info_by_id
libixpdimm-common.so.1:db_update_runtime_config_validation_by_id
libixpdimm-common.so.1:db_update_socket_by_id
libixpdimm-common.so.1:db_update_socket_sku_by_node_id
libixpdimm-common.so.1:db_update_software_trigger_info_by_device_handle
libixpdimm-common.so.1:db_update_sw_inventory_by_name
libixpdimm-common.so.1:db_update_temperature_error_injection_info_by_device_handle
libixpdimm-common.so.1:db_update_topology_state_by_device_handle
libixpdimm-common.so.1:decompress_file
libixpdimm-common.so.1:delete_dir
libixpdimm-common.so.1:delete_file
libixpdimm-common.so.1:dlib_close
libixpdimm-common.so.1:dlib_find_symbol
libixpdimm-common.so.1:dlib_load
libixpdimm-common.so.1:dlib_suffix
libixpdimm-common.so.1:do_log
libixpdimm-common.so.1:event_matches_filter
libixpdimm-common.so.1:file_exists
libixpdimm-common.so.1:flush_csv_log_to_db
libixpdimm-common.so.1:format_fw_revision
libixpdimm-common.so.1:format_revision
libixpdimm-common.so.1:free_PersistentStore
libixpdimm-common.so.1:generate_guid
libixpdimm-common.so.1:generate_guid_str
libixpdimm-common.so.1:get_absolute_path
libixpdimm-common.so.1:get_acpi_table
libixpdimm-common.so.1:get_bounded_config_value
libixpdimm-common.so.1:get_bounded_config_value_int
libixpdimm-common.so.1:get_config_cache
libixpdimm-common.so.1:get_config_value
libixpdimm-common.so.1:get_config_value_int
libixpdimm-common.so.1:get_cpuid
libixpdimm-common.so.1:get_current_datetime
libixpdimm-common.so.1:get_current_log_level
libixpdimm-common.so.1:get_current_print_mask
libixpdimm-common.so.1:get_current_time_msec
libixpdimm-common.so.1:get_cwd
libixpdimm-common.so.1:get_filesize
libixpdimm-common.so.1:get_hex_string
libixpdimm-common.so.1:get_host_name
libixpdimm-common.so.1:get_install_dir
libixpdimm-common.so.1:get_key_file_path
libixpdimm-common.so.1:get_lib_store
libixpdimm-common.so.1:get_lib_store_path
libixpdimm-common.so.1:get_locale_dir
libixpdimm-common.so.1:get_log_file_path
libixpdimm-common.so.1:get_os_name
libixpdimm-common.so.1:get_os_version
libixpdimm-common.so.1:get_processor_brand
libixpdimm-common.so.1:get_processor_info
libixpdimm-common.so.1:get_processor_manufacturer
libixpdimm-common.so.1:get_thread_id
libixpdimm-common.so.1:get_timezone_diff
libixpdimm-common.so.1:get_tm_tzd_mins
libixpdimm-common.so.1:get_uid_index
libixpdimm-common.so.1:guid_cmp
libixpdimm-common.so.1:guid_hash
libixpdimm-common.so.1:guid_hash_str
libixpdimm-common.so.1:guid_to_str
libixpdimm-common.so.1:guid_to_uid
libixpdimm-common.so.1:hexdec
libixpdimm-common.so.1:hexstr_to_int
libixpdimm-common.so.1:init_config_cache
libixpdimm-common.so.1:int_to_hex_digits
libixpdimm-common.so.1:is_uid_in_list
libixpdimm-common.so.1:is_valid_value
libixpdimm-common.so.1:local_bind_boot_status_register
libixpdimm-common.so.1:local_bind_config
libixpdimm-common.so.1:local_bind_device_characteristics
libixpdimm-common.so.1:local_bind_dimm_alarm_thresholds
libixpdimm-common.so.1:local_bind_dimm_ars_command_specific_data
libixpdimm-common.so.1:local_bind_dimm_config_input
libixpdimm-common.so.1:local_bind_dimm_config_output
libixpdimm-common.so.1:local_bind_dimm_current_config
libixpdimm-common.so.1:local_bind_dimm_details
libixpdimm-common.so.1:local_bind_dimm_die_sparing
libixpdimm-common.so.1:local_bind_dimm_erasure_coding
libixpdimm-common.so.1:local_bind_dimm_err_correction
libixpdimm-common.so.1:local_bind_dimm_fw_debug_log
libixpdimm-common.so.1:local_bind_dimm_fw_image
libixpdimm-common.so.1:local_bind_dimm_fw_log_level
libixpdimm-common.so.1:local_bind_dimm_fw_time
libixpdimm-common.so.1:local_bind_dimm_interleave_set
libixpdimm-common.so.1:local_bind_dimm_long_op_status
libixpdimm-common.so.1:local_bind_dimm_memory_info_page0
libixpdimm-common.so.1:local_bind_dimm_memory_info_page1
libixpdimm-common.so.1:local_bind_dimm_optional_config_data
libixpdimm-common.so.1:local_bind_dimm_partition
libixpdimm-common.so.1:local_bind_dimm_partition_change
libixpdimm-common.so.1:local_bind_dimm_platform_config
libixpdimm-common.so.1:local_bind_dimm_power_management
libixpdimm-common.so.1:local_bind_dimm_sanitize_info
libixpdimm-common.so.1:local_bind_dimm_security_info
libixpdimm-common.so.1:local_bind_dimm_smart
libixpdimm-common.so.1:local_bind_dimm_state
libixpdimm-common.so.1:local_bind_dimm_thermal
libixpdimm-common.so.1:local_bind_dimm_topology
libixpdimm-common.so.1:local_bind_driver_capabilities
libixpdimm-common.so.1:local_bind_driver_features
libixpdimm-common.so.1:local_bind_driver_metadata_check_diag_result
libixpdimm-common.so.1:local_bind_eafd
libixpdimm-common.so.1:local_bind_enable_error_injection_info
libixpdimm-common.so.1:local_bind_event
libixpdimm-common.so.1:local_bind_fw_media_high_log_entry
libixpdimm-common.so.1:local_bind_fw_media_high_log_info
libixpdimm-common.so.1:local_bind_fw_media_low_log_entry
libixpdimm-common.so.1:local_bind_fw_media_low_log_info
libixpdimm-common.so.1:local_bind_fw_thermal_high_log_entry
libixpdimm-common.so.1:local_bind_fw_thermal_high_log_info
libixpdimm-common.so.1:local_bind_fw_thermal_low_log_entry
libixpdimm-common.so.1:local_bind_fw_thermal_low_log_info
libixpdimm-common.so.1:local_bind_host
libixpdimm-common.so.1:local_bind_identify_dimm
libixpdimm-common.so.1:local_bind_interleave_capability
libixpdimm-common.so.1:local_bind_interleave_set
libixpdimm-common.so.1:local_bind_interleave_set_dimm_info_v1
libixpdimm-common.so.1:local_bind_interleave_set_dimm_info_v2
libixpdimm-common.so.1:local_bind_log
libixpdimm-common.so.1:local_bind_namespace
libixpdimm-common.so.1:local_bind_namespace_state
libixpdimm-common.so.1:local_bind_performance
libixpdimm-common.so.1:local_bind_platform_capabilities
libixpdimm-common.so.1:local_bind_platform_info_capability
libixpdimm-common.so.1:local_bind_poison_error_injection_info
libixpdimm-common.so.1:local_bind_runtime_config_validation
libixpdimm-common.so.1:local_bind_socket
libixpdimm-common.so.1:local_bind_socket_sku
libixpdimm-common.so.1:local_bind_software_trigger_info
libixpdimm-common.so.1:local_bind_sw_inventory
libixpdimm-common.so.1:local_bind_temperature_error_injection_info
libixpdimm-common.so.1:local_bind_topology_state
libixpdimm-common.so.1:local_get_boot_status_register_relationships
libixpdimm-common.so.1:local_get_config_relationships
libixpdimm-common.so.1:local_get_device_characteristics_relationships
libixpdimm-common.so.1:local_get_device_characteristics_relationships_history
libixpdimm-common.so.1:local_get_dimm_alarm_thresholds_relationships
libixpdimm-common.so.1:local_get_dimm_alarm_thresholds_relationships_history
libixpdimm-common.so.1:local_get_dimm_ars_command_specific_data_relationships
libixpdimm-common.so.1:local_get_dimm_ars_command_specific_data_relationships_history
libixpdimm-common.so.1:local_get_dimm_config_input_relationships
libixpdimm-common.so.1:local_get_dimm_config_input_relationships_history
libixpdimm-common.so.1:local_get_dimm_config_output_relationships
libixpdimm-common.so.1:local_get_dimm_config_output_relationships_history
libixpdimm-common.so.1:local_get_dimm_current_config_relationships
libixpdimm-common.so.1:local_get_dimm_current_config_relationships_history
libixpdimm-common.so.1:local_get_dimm_details_relationships
libixpdimm-common.so.1:local_get_dimm_details_relationships_history
libixpdimm-common.so.1:local_get_dimm_die_sparing_relationships
libixpdimm-common.so.1:local_get_dimm_die_sparing_relationships_history
libixpdimm-common.so.1:local_get_dimm_erasure_coding_relationships
libixpdimm-common.so.1:local_get_dimm_erasure_coding_relationships_history
libixpdimm-common.so.1:local_get_dimm_err_correction_relationships
libixpdimm-common.so.1:local_get_dimm_err_correction_relationships_history
libixpdimm-common.so.1:local_get_dimm_fw_debug_log_relationships
libixpdimm-common.so.1:local_get_dimm_fw_debug_log_relationships_history
libixpdimm-common.so.1:local_get_dimm_fw_image_relationships
libixpdimm-common.so.1:local_get_dimm_fw_image_relationships_history
libixpdimm-common.so.1:local_get_dimm_fw_log_level_relationships
libixpdimm-common.so.1:local_get_dimm_fw_log_level_relationships_history
libixpdimm-common.so.1:local_get_dimm_fw_time_relationships
libixpdimm-common.so.1:local_get_dimm_fw_time_relationships_history
libixpdimm-common.so.1:local_get_dimm_interleave_set_relationships
libixpdimm-common.so.1:local_get_dimm_interleave_set_relationships_history
libixpdimm-common.so.1:local_get_dimm_long_op_status_relationships
libixpdimm-common.so.1:local_get_dimm_long_op_status_relationships_history
libixpdimm-common.so.1:local_get_dimm_memory_info_page0_relationships
libixpdimm-common.so.1:local_get_dimm_memory_info_page0_relationships_history
libixpdimm-common.so.1:local_get_dimm_memory_info_page1_relationships
libixpdimm-common.so.1:local_get_dimm_memory_info_page1_relationships_history
libixpdimm-common.so.1:local_get_dimm_optional_config_data_relationships
libixpdimm-common.so.1:local_get_dimm_optional_config_data_relationships_history
libixpdimm-common.so.1:local_get_dimm_partition_change_relationships
libixpdimm-common.so.1:local_get_dimm_partition_change_relationships_history
libixpdimm-common.so.1:local_get_dimm_partition_relationships
libixpdimm-common.so.1:local_get_dimm_partition_relationships_history
libixpdimm-common.so.1:local_get_dimm_platform_config_relationships
libixpdimm-common.so.1:local_get_dimm_platform_config_relationships_history
libixpdimm-common.so.1:local_get_dimm_power_management_relationships
libixpdimm-common.so.1:local_get_dimm_power_management_relationships_history
libixpdimm-common.so.1:local_get_dimm_sanitize_info_relationships
libixpdimm-common.so.1:local_get_dimm_sanitize_info_relationships_history
libixpdimm-common.so.1:local_get_dimm_security_info_relationships
libixpdimm-common.so.1:local_get_dimm_security_info_relationships_history
libixpdimm-common.so.1:local_get_dimm_smart_relationships
libixpdimm-common.so.1:local_get_dimm_smart_relationships_history
libixpdimm-common.so.1:local_get_dimm_state_relationships
libixpdimm-common.so.1:local_get_dimm_thermal_relationships
libixpdimm-common.so.1:local_get_dimm_thermal_relationships_history
libixpdimm-common.so.1:local_get_dimm_topology_relationships
libixpdimm-common.so.1:local_get_dimm_topology_relationships_history
libixpdimm-common.so.1:local_get_driver_capabilities_relationships
libixpdimm-common.so.1:local_get_driver_capabilities_relationships_history
libixpdimm-common.so.1:local_get_driver_features_relationships
libixpdimm-common.so.1:local_get_driver_features_relationships_history
libixpdimm-common.so.1:local_get_driver_metadata_check_diag_result_relationships
libixpdimm-common.so.1:local_get_eafd_relationships
libixpdimm-common.so.1:local_get_enable_error_injection_info_relationships
libixpdimm-common.so.1:local_get_enable_error_injection_info_relationships_history
libixpdimm-common.so.1:local_get_event_relationships
libixpdimm-common.so.1:local_get_fw_media_high_log_entry_relationships
libixpdimm-common.so.1:local_get_fw_media_high_log_entry_relationships_history
libixpdimm-common.so.1:local_get_fw_media_high_log_info_relationships
libixpdimm-common.so.1:local_get_fw_media_high_log_info_relationships_history
libixpdimm-common.so.1:local_get_fw_media_low_log_entry_relationships
libixpdimm-common.so.1:local_get_fw_media_low_log_entry_relationships_history
libixpdimm-common.so.1:local_get_fw_media_low_log_info_relationships
libixpdimm-common.so.1:local_get_fw_media_low_log_info_relationships_history
libixpdimm-common.so.1:local_get_fw_thermal_high_log_entry_relationships
libixpdimm-common.so.1:local_get_fw_thermal_high_log_entry_relationships_history
libixpdimm-common.so.1:local_get_fw_thermal_high_log_info_relationships
libixpdimm-common.so.1:local_get_fw_thermal_high_log_info_relationships_history
libixpdimm-common.so.1:local_get_fw_thermal_low_log_entry_relationships
libixpdimm-common.so.1:local_get_fw_thermal_low_log_entry_relationships_history
libixpdimm-common.so.1:local_get_fw_thermal_low_log_info_relationships
libixpdimm-common.so.1:local_get_fw_thermal_low_log_info_relationships_history
libixpdimm-common.so.1:local_get_host_relationships
libixpdimm-common.so.1:local_get_host_relationships_history
libixpdimm-common.so.1:local_get_identify_dimm_relationships
libixpdimm-common.so.1:local_get_identify_dimm_relationships_history
libixpdimm-common.so.1:local_get_interleave_capability_relationships
libixpdimm-common.so.1:local_get_interleave_capability_relationships_history
libixpdimm-common.so.1:local_get_interleave_set_dimm_info_v1_relationships
libixpdimm-common.so.1:local_get_interleave_set_dimm_info_v1_relationships_history
libixpdimm-common.so.1:local_get_interleave_set_dimm_info_v2_relationships
libixpdimm-common.so.1:local_get_interleave_set_dimm_info_v2_relationships_history
libixpdimm-common.so.1:local_get_interleave_set_relationships
libixpdimm-common.so.1:local_get_interleave_set_relationships_history
libixpdimm-common.so.1:local_get_log_relationships
libixpdimm-common.so.1:local_get_namespace_relationships
libixpdimm-common.so.1:local_get_namespace_relationships_history
libixpdimm-common.so.1:local_get_namespace_state_relationships
libixpdimm-common.so.1:local_get_performance_relationships
libixpdimm-common.so.1:local_get_platform_capabilities_relationships
libixpdimm-common.so.1:local_get_platform_capabilities_relationships_history
libixpdimm-common.so.1:local_get_platform_info_capability_relationships
libixpdimm-common.so.1:local_get_platform_info_capability_relationships_history
libixpdimm-common.so.1:local_get_poison_error_injection_info_relationships
libixpdimm-common.so.1:local_get_poison_error_injection_info_relationships_history
libixpdimm-common.so.1:local_get_runtime_config_validation_relationships
libixpdimm-common.so.1:local_get_runtime_config_validation_relationships_history
libixpdimm-common.so.1:local_get_socket_relationships
libixpdimm-common.so.1:local_get_socket_relationships_history
libixpdimm-common.so.1:local_get_socket_sku_relationships
libixpdimm-common.so.1:local_get_socket_sku_relationships_history
libixpdimm-common.so.1:local_get_software_trigger_info_relationships
libixpdimm-common.so.1:local_get_software_trigger_info_relationships_history
libixpdimm-common.so.1:local_get_sw_inventory_relationships
libixpdimm-common.so.1:local_get_sw_inventory_relationships_history
libixpdimm-common.so.1:local_get_temperature_error_injection_info_relationships
libixpdimm-common.so.1:local_get_temperature_error_injection_info_relationships_history
libixpdimm-common.so.1:local_get_topology_state_relationships
libixpdimm-common.so.1:local_row_to_boot_status_register
libixpdimm-common.so.1:local_row_to_config
libixpdimm-common.so.1:local_row_to_device_characteristics
libixpdimm-common.so.1:local_row_to_dimm_alarm_thresholds
libixpdimm-common.so.1:local_row_to_dimm_ars_command_specific_data
libixpdimm-common.so.1:local_row_to_dimm_config_input
libixpdimm-common.so.1:local_row_to_dimm_config_output
libixpdimm-common.so.1:local_row_to_dimm_current_config
libixpdimm-common.so.1:local_row_to_dimm_details
libixpdimm-common.so.1:local_row_to_dimm_die_sparing
libixpdimm-common.so.1:local_row_to_dimm_erasure_coding
libixpdimm-common.so.1:local_row_to_dimm_err_correction
libixpdimm-common.so.1:local_row_to_dimm_fw_debug_log
libixpdimm-common.so.1:local_row_to_dimm_fw_image
libixpdimm-common.so.1:local_row_to_dimm_fw_log_level
libixpdimm-common.so.1:local_row_to_dimm_fw_time
libixpdimm-common.so.1:local_row_to_dimm_interleave_set
libixpdimm-common.so.1:local_row_to_dimm_long_op_status
libixpdimm-common.so.1:local_row_to_dimm_memory_info_page0
libixpdimm-common.so.1:local_row_to_dimm_memory_info_page1
libixpdimm-common.so.1:local_row_to_dimm_optional_config_data
libixpdimm-common.so.1:local_row_to_dimm_partition
libixpdimm-common.so.1:local_row_to_dimm_partition_change
libixpdimm-common.so.1:local_row_to_dimm_platform_config
libixpdimm-common.so.1:local_row_to_dimm_power_management
libixpdimm-common.so.1:local_row_to_dimm_sanitize_info
libixpdimm-common.so.1:local_row_to_dimm_security_info
libixpdimm-common.so.1:local_row_to_dimm_smart
libixpdimm-common.so.1:local_row_to_dimm_state
libixpdimm-common.so.1:local_row_to_dimm_thermal
libixpdimm-common.so.1:local_row_to_dimm_topology
libixpdimm-common.so.1:local_row_to_driver_capabilities
libixpdimm-common.so.1:local_row_to_driver_features
libixpdimm-common.so.1:local_row_to_driver_metadata_check_diag_result
libixpdimm-common.so.1:local_row_to_eafd
libixpdimm-common.so.1:local_row_to_enable_error_injection_info
libixpdimm-common.so.1:local_row_to_event
libixpdimm-common.so.1:local_row_to_fw_media_high_log_entry
libixpdimm-common.so.1:local_row_to_fw_media_high_log_info
libixpdimm-common.so.1:local_row_to_fw_media_low_log_entry
libixpdimm-common.so.1:local_row_to_fw_media_low_log_info
libixpdimm-common.so.1:local_row_to_fw_thermal_high_log_entry
libixpdimm-common.so.1:local_row_to_fw_thermal_high_log_info
libixpdimm-common.so.1:local_row_to_fw_thermal_low_log_entry
libixpdimm-common.so.1:local_row_to_fw_thermal_low_log_info
libixpdimm-common.so.1:local_row_to_host
libixpdimm-common.so.1:local_row_to_identify_dimm
libixpdimm-common.so.1:local_row_to_interleave_capability
libixpdimm-common.so.1:local_row_to_interleave_set
libixpdimm-common.so.1:local_row_to_interleave_set_dimm_info_v1
libixpdimm-common.so.1:local_row_to_interleave_set_dimm_info_v2
libixpdimm-common.so.1:local_row_to_log
libixpdimm-common.so.1:local_row_to_namespace
libixpdimm-common.so.1:local_row_to_namespace_state
libixpdimm-common.so.1:local_row_to_performance
libixpdimm-common.so.1:local_row_to_platform_capabilities
libixpdimm-common.so.1:local_row_to_platform_info_capability
libixpdimm-common.so.1:local_row_to_poison_error_injection_info
libixpdimm-common.so.1:local_row_to_runtime_config_validation
libixpdimm-common.so.1:local_row_to_socket
libixpdimm-common.so.1:local_row_to_socket_sku
libixpdimm-common.so.1:local_row_to_software_trigger_info
libixpdimm-common.so.1:local_row_to_sw_inventory
libixpdimm-common.so.1:local_row_to_temperature_error_injection_info
libixpdimm-common.so.1:local_row_to_topology_state
libixpdimm-common.so.1:lock_file
libixpdimm-common.so.1:log_close
libixpdimm-common.so.1:log_event_in_syslog
libixpdimm-common.so.1:log_gather
libixpdimm-common.so.1:log_init
libixpdimm-common.so.1:log_level_check
libixpdimm-common.so.1:log_system_event
libixpdimm-common.so.1:log_to_syslog
libixpdimm-common.so.1:log_trace
libixpdimm-common.so.1:log_trace_f
libixpdimm-common.so.1:lookup_jedec_jep106_manufacturer
libixpdimm-common.so.1:make_message
libixpdimm-common.so.1:mutex_delete
libixpdimm-common.so.1:mutex_init
libixpdimm-common.so.1:mutex_lock
libixpdimm-common.so.1:mutex_unlock
libixpdimm-common.so.1:nvm_sleep
libixpdimm-common.so.1:open_PersistentStore
libixpdimm-common.so.1:open_default_lib_store
libixpdimm-common.so.1:open_file
libixpdimm-common.so.1:open_lib_store
libixpdimm-common.so.1:params_to_event
libixpdimm-common.so.1:parse_fw_revision
libixpdimm-common.so.1:parse_main_revision
libixpdimm-common.so.1:parse_revision
libixpdimm-common.so.1:populate_event_message
libixpdimm-common.so.1:print_acpi_table_header
libixpdimm-common.so.1:print_buffer_to_file
libixpdimm-common.so.1:process_events_matching_filter
libixpdimm-common.so.1:raw_compression
libixpdimm-common.so.1:raw_decompression
libixpdimm-common.so.1:return_datetime_interval_seconds
libixpdimm-common.so.1:return_datetime_seconds
libixpdimm-common.so.1:rm_config_value
libixpdimm-common.so.1:roll_db_log
libixpdimm-common.so.1:rsa_decrypt
libixpdimm-common.so.1:rsa_encrypt
libixpdimm-common.so.1:run_scalar_sql
libixpdimm-common.so.1:run_sql_no_results
libixpdimm-common.so.1:run_text_scalar_sql
libixpdimm-common.so.1:rwlock_delete
libixpdimm-common.so.1:rwlock_init
libixpdimm-common.so.1:rwlock_r_lock
libixpdimm-common.so.1:rwlock_r_unlock
libixpdimm-common.so.1:rwlock_w_lock
libixpdimm-common.so.1:rwlock_w_unlock
libixpdimm-common.so.1:s_digitstrtouc
libixpdimm-common.so.1:s_memset
libixpdimm-common.so.1:s_snprintf
libixpdimm-common.so.1:s_strcat
libixpdimm-common.so.1:s_strcpy
libixpdimm-common.so.1:s_strncat
libixpdimm-common.so.1:s_strncmp
libixpdimm-common.so.1:s_strncmpi
libixpdimm-common.so.1:s_strncpy
libixpdimm-common.so.1:s_strncpy_unterm
libixpdimm-common.so.1:s_strnlen
libixpdimm-common.so.1:s_strrchr
libixpdimm-common.so.1:s_strrep_char
libixpdimm-common.so.1:s_strtoui
libixpdimm-common.so.1:s_strtoull
libixpdimm-common.so.1:s_strtous
libixpdimm-common.so.1:s_strtrim
libixpdimm-common.so.1:s_strtrim_left
libixpdimm-common.so.1:s_strtrim_right
libixpdimm-common.so.1:set_config_cache
libixpdimm-common.so.1:set_current_log_level
libixpdimm-common.so.1:set_current_print_mask
libixpdimm-common.so.1:set_default_config_settings
libixpdimm-common.so.1:smbios_copy_structure_string_to_buffer
libixpdimm-common.so.1:smbios_get_byte_after_end_of_string_list
libixpdimm-common.so.1:smbios_get_first_structure_of_type
libixpdimm-common.so.1:smbios_get_next_string
libixpdimm-common.so.1:smbios_get_next_structure
libixpdimm-common.so.1:smbios_get_next_structure_of_type
libixpdimm-common.so.1:smbios_get_structure_count_of_type
libixpdimm-common.so.1:smbios_get_structure_string
libixpdimm-common.so.1:smbios_get_structure_with_handle
libixpdimm-common.so.1:start_process
libixpdimm-common.so.1:stop_process
libixpdimm-common.so.1:store_event
libixpdimm-common.so.1:store_event_by_parts
libixpdimm-common.so.1:str_to_guid
libixpdimm-common.so.1:table_exists
libixpdimm-common.so.1:table_row_count
libixpdimm-common.so.1:todigit
libixpdimm-common.so.1:truncate_us
libixpdimm-common.so.1:uid_cmp
libixpdimm-common.so.1:uid_copy
libixpdimm-common.so.1:update_sqlite3_hook
libixpdimm-common.so.1:ws_strcpy
libixpdimm-common.so.1:x_strtok
libixpdimm-core.so.1:_Z10lib_unloadv
libixpdimm-core.so.1:_Z12nvm_open_libv
libixpdimm-core.so.1:_Z13nvm_close_libv
libixpdimm-core.so.1:_Z8lib_loadv
libixpdimm-core.so.1:_ZN4core10LibWrapper13getLibWrapperEv
libixpdimm-core.so.1:_ZN4core10LibWrapper17dumpDeviceSupportEPcS1_mPA4096_c
libixpdimm-core.so.1:_ZN4core10LibWrapperC1Ev
libixpdimm-core.so.1:_ZN4core10LibWrapperC2Ev
libixpdimm-core.so.1:_ZN4core10LibWrapperD0Ev
libixpdimm-core.so.1:_ZN4core10LibWrapperD1Ev
libixpdimm-core.so.1:_ZN4core10LibWrapperD2Ev
libixpdimm-core.so.1:_ZN4core10NvmLibrary10dumpConfigERKNSt7__cxx1112basic_stringIcSt11char_traitsIcESaIcEEES6_b
libixpdimm-core.so.1:_ZN4core10NvmLibrary10getDevicesEv
libixpdimm-core.so.1:_ZN4core10NvmLibrary10getSensorsERKNSt7__cxx1112basic_stringIcSt11char_traitsIcESaIcEEE
libixpdimm-core.so.1:_ZN4core10NvmLibrary10getSocketsEv
libixpdimm-core.so.1:_ZN4core10NvmLibrary10loadConfigERKNSt7__cxx1112basic_stringIcSt11char_traitsIcESaIcEEES6_
libixpdimm-core.so.1:_ZN4core10NvmLibrary11eraseDeviceERKNSt7__cxx1112basic_stringIcSt11char_traitsIcESaIcEEES6_
libixpdimm-core.so.1:_ZN4core10NvmLibrary11getHostNameB5cxx11Ev
libixpdimm-core.so.1:_ZN4core10NvmLibrary11getJobCountEv
libixpdimm-core.so.1:_ZN4core10NvmLibrary11purgeEventsERK12event_filter
libixpdimm-core.so.1:_ZN4core10NvmLibrary12addSimulatorENSt7__cxx1112basic_stringIcSt11char_traitsIcESaIcEEE
libixpdimm-core.so.1:_ZN4core10NvmLibrary12clearDimmLsaEPKc
libixpdimm-core.so.1:_ZN4core10NvmLibrary12getDebugLogsEv
libixpdimm-core.so.1:_ZN4core10NvmLibrary12getPoolCountEv
libixpdimm-core.so.1:_ZN4core10NvmLibrary12sendPassThruEPKcR13device_pt_cmd
libixpdimm-core.so.1:_ZN4core10NvmLibrary12unlockDeviceERKNSt7__cxx1112basic_stringIcSt11char_traitsIcESaIcEEES6_
libixpdimm-core.so.1:_ZN4core10NvmLibrary13gatherSupportENSt7__cxx1112basic_stringIcSt11char_traitsIcESaIcEEE
libixpdimm-core.so.1:_ZN4core10NvmLibrary13getConfigGoalERKNSt7__cxx1112basic_stringIcSt11char_traitsIcESaIcEEE
libixpdimm-core.so.1:_ZN4core10NvmLibrary13getEventCountERK12event_filter
libixpdimm-core.so.1:_ZN4core10NvmLibrary13getFwLogLevelERKNSt7__cxx1112basic_stringIcSt11char_traitsIcESaIcEEE
libixpdimm-core.so.1:_ZN4core10NvmLibrary13getNamespacesEv
libixpdimm-core.so.1:_ZN4core10NvmLibrary13getNvmLibraryEv
libixpdimm-core.so.1:_ZN4core10NvmLibrary13purgeDebugLogEv
libixpdimm-core.so.1:_ZN4core10NvmLibrary13runDiagnosticERKNSt7__cxx1112basic_stringIcSt11char_traitsIcESaIcEEERK10diagnosticRj
libixpdimm-core.so.1:_ZN4core10NvmLibrary13setFwLogLevelERKNSt7__cxx1112basic_stringIcSt11char_traitsIcESaIcEEE12fw_log_level
libixpdimm-core.so.1:_ZN4core10NvmLibrary13setPassphraseERKNSt7__cxx1112basic_stringIcSt11char_traitsIcESaIcEEES6_S6_
libixpdimm-core.so.1:_ZN4core10NvmLibrary14addEventNotifyE10event_typePFvP5eventE
libixpdimm-core.so.1:_ZN4core10NvmLibrary14getDeviceCountEv
libixpdimm-core.so.1:_ZN4core10NvmLibrary14getSocketCountEv
libixpdimm-core.so.1:_ZN4core10NvmLibrary14getSwInventoryEv
libixpdimm-core.so.1:_ZN4core10NvmLibrary14purgeStateDataEv
libixpdimm-core.so.1:_ZN4core10NvmLibrary14updateDeviceFwERKNSt7__cxx1112basic_stringIcSt11char_traitsIcESaIcEEES6_b
libixpdimm-core.so.1:_ZN4core10NvmLibrary15createNamespaceERKNSt7__cxx1112basic_stringIcSt11char_traitsIcESaIcEEER25namespace_create_settingsPK17interleave_formatb
libixpdimm-core.so.1:_ZN4core10NvmLibrary15deleteNamespaceERKNSt7__cxx1112basic_stringIcSt11char_traitsIcESaIcEEE
libixpdimm-core.so.1:_ZN4core10NvmLibrary15examineDeviceFwERKNSt7__cxx1112basic_stringIcSt11char_traitsIcESaIcEEES6_S6_
libixpdimm-core.so.1:_ZN4core10NvmLibrary15getDeviceFwInfoERKNSt7__cxx1112basic_stringIcSt11char_traitsIcESaIcEEE
libixpdimm-core.so.1:_ZN4core10NvmLibrary15getDeviceStatusERKNSt7__cxx1112basic_stringIcSt11char_traitsIcESaIcEEE
libixpdimm-core.so.1:_ZN4core10NvmLibrary15getErrorMessageB5cxx11Ei
libixpdimm-core.so.1:_ZN4core10NvmLibrary15removeSimulatorEv
libixpdimm-core.so.1:_ZN4core10NvmLibrary16acknowledgeEventEj
libixpdimm-core.so.1:_ZN4core10NvmLibrary16createConfigGoalERKNSt7__cxx1112basic_stringIcSt11char_traitsIcESaIcEEER11config_goal
libixpdimm-core.so.1:_ZN4core10NvmLibrary16deleteConfigGoalERKNSt7__cxx1112basic_stringIcSt11char_traitsIcESaIcEEE
libixpdimm-core.so.1:_ZN4core10NvmLibrary16freezeLockDeviceERKNSt7__cxx1112basic_stringIcSt11char_traitsIcESaIcEEE
libixpdimm-core.so.1:_ZN4core10NvmLibrary16getDebugLogCountEv
libixpdimm-core.so.1:_ZN4core10NvmLibrary16getDeviceDetailsERKNSt7__cxx1112basic_stringIcSt11char_traitsIcESaIcEEE
libixpdimm-core.so.1:_ZN4core10NvmLibrary16getFwErrLogEntryEPKcthhPvj
libixpdimm-core.so.1:_ZN4core10NvmLibrary16getNvmCapacitiesEv
libixpdimm-core.so.1:_ZN4core10NvmLibrary16removePassphraseERKNSt7__cxx1112basic_stringIcSt11char_traitsIcESaIcEEES6_
libixpdimm-core.so.1:_ZN4core10NvmLibrary17dumpDeviceSupportEPcS1_mPA4096_c
libixpdimm-core.so.1:_ZN4core10NvmLibrary17getDeviceSettingsERKNSt7__cxx1112basic_stringIcSt11char_traitsIcESaIcEEE
libixpdimm-core.so.1:_ZN4core10NvmLibrary17getMemoryTopologyEv
libixpdimm-core.so.1:_ZN4core10NvmLibrary17getNamespaceCountEv
libixpdimm-core.so.1:_ZN4core10NvmLibrary17injectDeviceErrorERKNSt7__cxx1112basic_stringIcSt11char_traitsIcESaIcEEERK12device_error
libixpdimm-core.so.1:_ZN4core10NvmLibrary17removeEventNotifyEi
libixpdimm-core.so.1:_ZN4core10NvmLibrary17setSensorSettingsERKNSt7__cxx1112basic_stringIcSt11char_traitsIcESaIcEEE11sensor_typeRK15sensor_settings
libixpdimm-core.so.1:_ZN4core10NvmLibrary18getDeviceDiscoveryERKNSt7__cxx1112basic_stringIcSt11char_traitsIcESaIcEEE
libixpdimm-core.so.1:_ZN4core10NvmLibrary18getNvmCapabilitiesEv
libixpdimm-core.so.1:_ZN4core10NvmLibrary18toggleDebugLoggingEb
libixpdimm-core.so.1:_ZN4core10NvmLibrary19getNamespaceDetailsERKNSt7__cxx1112basic_stringIcSt11char_traitsIcESaIcEEE
libixpdimm-core.so.1:_ZN4core10NvmLibrary19modifyNamespaceNameERKNSt7__cxx1112basic_stringIcSt11char_traitsIcESaIcEEES8_
libixpdimm-core.so.1:_ZN4core10NvmLibrary20getDevicePerformanceERKNSt7__cxx1112basic_stringIcSt11char_traitsIcESaIcEEE
libixpdimm-core.so.1:_ZN4core10NvmLibrary20modifyDeviceSettingsERKNSt7__cxx1112basic_stringIcSt11char_traitsIcESaIcEEERK15device_settings
libixpdimm-core.so.1:_ZN4core10NvmLibrary21isDebugLoggingEnabledEv
libixpdimm-core.so.1:_ZN4core10NvmLibrary22getMemoryTopologyCountEv
libixpdimm-core.so.1:_ZN4core10NvmLibrary22modifyNamespaceEnabledERKNSt7__cxx1112basic_stringIcSt11char_traitsIcESaIcEEE22namespace_enable_state
libixpdimm-core.so.1:_ZN4core10NvmLibrary23getDeviceNamespaceCountERKNSt7__cxx1112basic_stringIcSt11char_traitsIcESaIcEEE14namespace_type
libixpdimm-core.so.1:_ZN4core10NvmLibrary24clearInjectedDeviceErrorERKNSt7__cxx1112basic_stringIcSt11char_traitsIcESaIcEEERK12device_error
libixpdimm-core.so.1:_ZN4core10NvmLibrary25modifyNamespaceBlockCountERKNSt7__cxx1112basic_stringIcSt11char_traitsIcESaIcEEEyb
libixpdimm-core.so.1:_ZN4core10NvmLibrary31adjustCreateNamespaceBlockCountERKNSt7__cxx1112basic_stringIcSt11char_traitsIcESaIcEEER25namespace_create_settingsPK17interleave_format
libixpdimm-core.so.1:_ZN4core10NvmLibrary31adjustModifyNamespaceBlockCountERKNSt7__cxx1112basic_stringIcSt11char_traitsIcESaIcEEERy
libixpdimm-core.so.1:_ZN4core10NvmLibrary31getAvailablePersistentSizeRangeERKNSt7__cxx1112basic_stringIcSt11char_traitsIcESaIcEEEh
libixpdimm-core.so.1:_ZN4core10NvmLibrary7getHostEv
libixpdimm-core.so.1:_ZN4core10NvmLibrary7getJobsEv
libixpdimm-core.so.1:_ZN4core10NvmLibrary7getPoolERKNSt7__cxx1112basic_stringIcSt11char_traitsIcESaIcEEE
libixpdimm-core.so.1:_ZN4core10NvmLibrary8getPoolsEv
libixpdimm-core.so.1:_ZN4core10NvmLibrary9getEventsERK12event_filter
libixpdimm-core.so.1:_ZN4core10NvmLibrary9getSensorERKNSt7__cxx1112basic_stringIcSt11char_traitsIcESaIcEEE11sensor_type
libixpdimm-core.so.1:_ZN4core10NvmLibrary9getSocketEt
libixpdimm-core.so.1:_ZN4core10NvmLibrary9saveStateENSt7__cxx1112basic_stringIcSt11char_traitsIcESaIcEEE
libixpdimm-core.so.1:_ZN4core10NvmLibraryC1ERKNS_10LibWrapperE
libixpdimm-core.so.1:_ZN4core10NvmLibraryC1ERKS0_
libixpdimm-core.so.1:_ZN4core10NvmLibraryC2ERKNS_10LibWrapperE
libixpdimm-core.so.1:_ZN4core10NvmLibraryC2ERKS0_
libixpdimm-core.so.1:_ZN4core10NvmLibraryD0Ev
libixpdimm-core.so.1:_ZN4core10NvmLibraryD1Ev
libixpdimm-core.so.1:_ZN4core10NvmLibraryD2Ev
libixpdimm-core.so.1:_ZN4core10NvmLibraryaSERKS0_
libixpdimm-core.so.1:_ZN4core13configuration20MemoryAllocationGoal12getDeviceUidB5cxx11Ev
libixpdimm-core.so.1:_ZN4core13configuration20MemoryAllocationGoal13hasAppDirect1Ev
libixpdimm-core.so.1:_ZN4core13configuration20MemoryAllocationGoal13hasAppDirect2Ev
libixpdimm-core.so.1:_ZN4core13configuration20MemoryAllocationGoal15getAppDirect1IdEv
libixpdimm-core.so.1:_ZN4core13configuration20MemoryAllocationGoal15getAppDirect2IdEv
libixpdimm-core.so.1:_ZN4core13configuration20MemoryAllocationGoal15getDeviceHandleEv
libixpdimm-core.so.1:_ZN4core13configuration20MemoryAllocationGoal16isActionRequiredEv
libixpdimm-core.so.1:_ZN4core13configuration20MemoryAllocationGoal17getAppDirectCountEv
libixpdimm-core.so.1:_ZN4core13configuration20MemoryAllocationGoal17getDeviceSocketIdEv
libixpdimm-core.so.1:_ZN4core13configuration20MemoryAllocationGoal20getMemorySizeInBytesEv
libixpdimm-core.so.1:_ZN4core13configuration20MemoryAllocationGoal21getStorageSizeInBytesEv
libixpdimm-core.so.1:_ZN4core13configuration20MemoryAllocationGoal22hasMemoryModePartitionEv
libixpdimm-core.so.1:_ZN4core13configuration20MemoryAllocationGoal23getActionRequiredEventsEv
libixpdimm-core.so.1:_ZN4core13configuration20MemoryAllocationGoal24getAppDirect1SizeInBytesEv
libixpdimm-core.so.1:_ZN4core13configuration20MemoryAllocationGoal24getAppDirect2SizeInBytesEv
libixpdimm-core.so.1:_ZN4core13configuration20MemoryAllocationGoal24getDeviceCapacityInBytesEv
libixpdimm-core.so.1:_ZN4core13configuration20MemoryAllocationGoal26getAppDirect1InterleaveWayEv
libixpdimm-core.so.1:_ZN4core13configuration20MemoryAllocationGoal26getAppDirect2InterleaveWayEv
libixpdimm-core.so.1:_ZN4core13configuration20MemoryAllocationGoal28getActionRequiredEventFilterEv
libixpdimm-core.so.1:_ZN4core13configuration20MemoryAllocationGoal30getAppDirect1ChannelInterleaveEv
libixpdimm-core.so.1:_ZN4core13configuration20MemoryAllocationGoal30getAppDirect2ChannelInterleaveEv
libixpdimm-core.so.1:_ZN4core13configuration20MemoryAllocationGoal31getGoalAppDirectCapacityInBytesEv
libixpdimm-core.so.1:_ZN4core13configuration20MemoryAllocationGoal32getGoalPersistentCapacityInBytesEv
libixpdimm-core.so.1:_ZN4core13configuration20MemoryAllocationGoal39getAppDirect1MemoryControllerInterleaveEv
libixpdimm-core.so.1:_ZN4core13configuration20MemoryAllocationGoal39getAppDirect2MemoryControllerInterleaveEv
libixpdimm-core.so.1:_ZN4core13configuration20MemoryAllocationGoal9getStatusEv
libixpdimm-core.so.1:_ZN4core13configuration20MemoryAllocationGoalC1ERK11config_goalRNS_6device6DeviceERNS_10NvmLibraryE
libixpdimm-core.so.1:_ZN4core13configuration20MemoryAllocationGoalC1Ev
libixpdimm-core.so.1:_ZN4core13configuration20MemoryAllocationGoalC2ERK11config_goalRNS_6device6DeviceERNS_10NvmLibraryE
libixpdimm-core.so.1:_ZN4core13configuration20MemoryAllocationGoalC2Ev
libixpdimm-core.so.1:_ZN4core13configuration20MemoryAllocationGoalD0Ev
libixpdimm-core.so.1:_ZN4core13configuration20MemoryAllocationGoalD1Ev
libixpdimm-core.so.1:_ZN4core13configuration20MemoryAllocationGoalD2Ev
libixpdimm-core.so.1:_ZN4core13configuration20MemoryAllocationGoalaSERKS1_
libixpdimm-core.so.1:_ZN4core13configuration27MemoryAllocationGoalService10getServiceEv
libixpdimm-core.so.1:_ZN4core13configuration27MemoryAllocationGoalService11getAllGoalsEv
libixpdimm-core.so.1:_ZN4core13configuration27MemoryAllocationGoalService16getGoalForDeviceERKNSt7__cxx1112basic_stringIcSt11char_traitsIcESaIcEEE
libixpdimm-core.so.1:_ZN4core13configuration27MemoryAllocationGoalService28addGoalForDeviceToCollectionERKNSt7__cxx1112basic_stringIcSt11char_traitsIcESaIcEEERNS0_30MemoryAllocationGoalCollectionE
libixpdimm-core.so.1:_ZN4core13configuration27MemoryAllocationGoalService33getConfigGoalForDeviceFromLibraryERKNSt7__cxx1112basic_stringIcSt11char_traitsIcESaIcEEE
libixpdimm-core.so.1:_ZN4core13configuration27MemoryAllocationGoalService34getGoalsFromMemoryAllocationLayoutERKNS_16memory_allocator22MemoryAllocationLayoutE
libixpdimm-core.so.1:_ZN4core13configuration27MemoryAllocationGoalServiceC1ERNS_6device13DeviceServiceERNS_10NvmLibraryE
libixpdimm-core.so.1:_ZN4core13configuration27MemoryAllocationGoalServiceC2ERNS_6device13DeviceServiceERNS_10NvmLibraryE
libixpdimm-core.so.1:_ZN4core13configuration27MemoryAllocationGoalServiceD0Ev
libixpdimm-core.so.1:_ZN4core13configuration27MemoryAllocationGoalServiceD1Ev
libixpdimm-core.so.1:_ZN4core13configuration27MemoryAllocationGoalServiceD2Ev
libixpdimm-core.so.1:_ZN4core13configuration30MemoryAllocationGoalCollection10safeDeleteEPPNS0_20MemoryAllocationGoalE
libixpdimm-core.so.1:_ZN4core13configuration30MemoryAllocationGoalCollection5clearEv
libixpdimm-core.so.1:_ZN4core13configuration30MemoryAllocationGoalCollection9push_backERNS0_20MemoryAllocationGoalE
libixpdimm-core.so.1:_ZN4core13configuration30MemoryAllocationGoalCollectionC1ERKS1_
libixpdimm-core.so.1:_ZN4core13configuration30MemoryAllocationGoalCollectionC1Ev
libixpdimm-core.so.1:_ZN4core13configuration30MemoryAllocationGoalCollectionC2ERKS1_
libixpdimm-core.so.1:_ZN4core13configuration30MemoryAllocationGoalCollectionC2Ev
libixpdimm-core.so.1:_ZN4core13configuration30MemoryAllocationGoalCollectionD0Ev
libixpdimm-core.so.1:_ZN4core13configuration30MemoryAllocationGoalCollectionD1Ev
libixpdimm-core.so.1:_ZN4core13configuration30MemoryAllocationGoalCollectionD2Ev
libixpdimm-core.so.1:_ZN4core13configuration30MemoryAllocationGoalCollectionaSERKS1_
libixpdimm-core.so.1:_ZN4core13configuration30MemoryAllocationGoalCollectionixERKNSt7__cxx1112basic_stringIcSt11char_traitsIcESaIcEEE
libixpdimm-core.so.1:_ZN4core16memory_allocator10LayoutStep10dimmHas2LMEN9__gnu_cxx17__normal_iteratorIPKNS0_4DimmESt6vectorIS4_SaIS4_EEEERNS0_22MemoryAllocationLayoutE
libixpdimm-core.so.1:_ZN4core16memory_allocator10LayoutStep10shrinkSizeERyyS2_
libixpdimm-core.so.1:_ZN4core16memory_allocator10LayoutStep11get2LMDimmsERKSt6vectorINS0_4DimmESaIS3_EERNS0_22MemoryAllocationLayoutE
libixpdimm-core.so.1:_ZN4core16memory_allocator10LayoutStep11getAD1DimmsERKSt6vectorINS0_4DimmESaIS3_EERNS0_22MemoryAllocationLayoutE
libixpdimm-core.so.1:_ZN4core16memory_allocator10LayoutStep11getAD2DimmsERKSt6vectorINS0_4DimmESaIS3_EERNS0_22MemoryAllocationLayoutE
libixpdimm-core.so.1:_ZN4core16memory_allocator10LayoutStep17dimmHasAppDirect1EN9__gnu_cxx17__normal_iteratorIPKNS0_4DimmESt6vectorIS4_SaIS4_EEEERNS0_22MemoryAllocationLayoutE
libixpdimm-core.so.1:_ZN4core16memory_allocator10LayoutStep17dimmHasAppDirect2EN9__gnu_cxx17__normal_iteratorIPKNS0_4DimmESt6vectorIS4_SaIS4_EEEERNS0_22MemoryAllocationLayoutE
libixpdimm-core.so.1:_ZN4core16memory_allocator10LayoutStep18killADIfSizeIsZeroER11config_goalNS1_13capacity_typeE
libixpdimm-core.so.1:_ZN4core16memory_allocator10LayoutStep19getTotalAD1CapacityERKSt6vectorINS0_4DimmESaIS3_EERNS0_22MemoryAllocationLayoutE
libixpdimm-core.so.1:_ZN4core16memory_allocator10LayoutStep19getTotalAD2CapacityERKSt6vectorINS0_4DimmESaIS3_EERNS0_22MemoryAllocationLayoutE
libixpdimm-core.so.1:_ZN4core16memory_allocator10LayoutStep21killAllCapacityByTypeERKSt6vectorINS0_4DimmESaIS3_EERNS0_22MemoryAllocationLayoutENS1_13capacity_typeE
libixpdimm-core.so.1:_ZN4core16memory_allocator10LayoutStep23getDimmUnallocatedBytesERKyRK11config_goal
libixpdimm-core.so.1:_ZN4core16memory_allocator10LayoutStep26getRemainingBytesFromDimmsERKSt6vectorINS0_4DimmESaIS3_EERNS0_22MemoryAllocationLayoutE
libixpdimm-core.so.1:_ZN4core16memory_allocator10LayoutStep32calculateCapacityToShrinkPerDimmEyi
libixpdimm-core.so.1:_ZN4core16memory_allocator10LayoutStep33getDimmUnallocatedGiBAlignedBytesERKyRK11config_goal
libixpdimm-core.so.1:_ZN4core16memory_allocator10LayoutStep33getLargestPerDimmSymmetricalBytesERKSt6vectorINS0_4DimmESaIS3_EERSt3mapINSt7__cxx1112basic_stringIcSt11char_traitsIcESaIcEEE11config_goalSt4lessISE_ESaISt4pairIKSE_SF_EEERKyRS5_
libixpdimm-core.so.1:_ZN4core16memory_allocator10LayoutStep35getRemainingBytesFromRequestedDimmsERKNS0_23MemoryAllocationRequestERNS0_22MemoryAllocationLayoutE
libixpdimm-core.so.1:_ZN4core16memory_allocator10LayoutStep38getCountOfDimmsWithUnallocatedCapacityERKSt6vectorINS0_4DimmESaIS3_EERSt3mapINSt7__cxx1112basic_stringIcSt11char_traitsIcESaIcEEE11config_goalSt4lessISE_ESaISt4pairIKSE_SF_EEE
libixpdimm-core.so.1:_ZN4core16memory_allocator10LayoutStep9shrinkAD1ERKSt6vectorINS0_4DimmESaIS3_EERyRNS0_22MemoryAllocationLayoutE
libixpdimm-core.so.1:_ZN4core16memory_allocator10LayoutStep9shrinkAD2ERKSt6vectorINS0_4DimmESaIS3_EERyRNS0_22MemoryAllocationLayoutE
libixpdimm-core.so.1:_ZN4core16memory_allocator11RuleNoDimms6verifyERKNS0_23MemoryAllocationRequestE
libixpdimm-core.so.1:_ZN4core16memory_allocator11RuleNoDimmsC1Ev
libixpdimm-core.so.1:_ZN4core16memory_allocator11RuleNoDimmsC2Ev
libixpdimm-core.so.1:_ZN4core16memory_allocator11RuleNoDimmsD0Ev
libixpdimm-core.so.1:_ZN4core16memory_allocator11RuleNoDimmsD1Ev
libixpdimm-core.so.1:_ZN4core16memory_allocator11RuleNoDimmsD2Ev
libixpdimm-core.so.1:_ZN4core16memory_allocator13LayoutBuilder15initLayoutGoalsERKNS0_23MemoryAllocationRequestERNS0_22MemoryAllocationLayoutE
libixpdimm-core.so.1:_ZN4core16memory_allocator13LayoutBuilder17deleteLayoutStepsEv
libixpdimm-core.so.1:_ZN4core16memory_allocator13LayoutBuilder32populateAllLayoutStepsForRequestERKNS0_23MemoryAllocationRequestE
libixpdimm-core.so.1:_ZN4core16memory_allocator13LayoutBuilder36populateOrderedLayoutStepsForRequestERKNS0_23MemoryAllocationRequestE
libixpdimm-core.so.1:_ZN4core16memory_allocator13LayoutBuilder36populateWarningGeneratingLayoutStepsEv
libixpdimm-core.so.1:_ZN4core16memory_allocator13LayoutBuilder5buildERKNS0_23MemoryAllocationRequestE
libixpdimm-core.so.1:_ZN4core16memory_allocator13LayoutBuilderC1ERK16nvm_capabilitiesRNS_10NvmLibraryESt6vectorI14device_detailsSaIS8_EEtt
libixpdimm-core.so.1:_ZN4core16memory_allocator13LayoutBuilderC2ERK16nvm_capabilitiesRNS_10NvmLibraryESt6vectorI14device_detailsSaIS8_EEtt
libixpdimm-core.so.1:_ZN4core16memory_allocator13LayoutBuilderD0Ev
libixpdimm-core.so.1:_ZN4core16memory_allocator13LayoutBuilderD1Ev
libixpdimm-core.so.1:_ZN4core16memory_allocator13LayoutBuilderD2Ev
libixpdimm-core.so.1:_ZN4core16memory_allocator15MemoryAllocator14validateLayoutERKNS0_23MemoryAllocationRequestENS0_22MemoryAllocationLayoutE
libixpdimm-core.so.1:_ZN4core16memory_allocator15MemoryAllocator15validateRequestERKNS0_23MemoryAllocationRequestE
libixpdimm-core.so.1:_ZN4core16memory_allocator15MemoryAllocator17deleteLayoutRulesEv
libixpdimm-core.so.1:_ZN4core16memory_allocator15MemoryAllocator18deleteRequestRulesEv
libixpdimm-core.so.1:_ZN4core16memory_allocator15MemoryAllocator20populateRequestRulesEv
libixpdimm-core.so.1:_ZN4core16memory_allocator15MemoryAllocator21getNewMemoryAllocatorEv
libixpdimm-core.so.1:_ZN4core16memory_allocator15MemoryAllocator24populatePostLayoutChecksEv
libixpdimm-core.so.1:_ZN4core16memory_allocator15MemoryAllocator37getTotalCapacitiesOfRequestedDimmsinBERKNS0_23MemoryAllocationRequestE
libixpdimm-core.so.1:_ZN4core16memory_allocator15MemoryAllocator6layoutERKNS0_23MemoryAllocationRequestEtt
libixpdimm-core.so.1:_ZN4core16memory_allocator15MemoryAllocator8allocateERNS0_22MemoryAllocationLayoutE
libixpdimm-core.so.1:_ZN4core16memory_allocator15MemoryAllocatorC1ERK16nvm_capabilitiesRKSt6vectorI16device_discoverySaIS6_EERKS5_I14device_detailsSaISB_EERKS5_I4poolSaISG_EEtRNS_10NvmLibraryE
libixpdimm-core.so.1:_ZN4core16memory_allocator15MemoryAllocatorC2ERK16nvm_capabilitiesRKSt6vectorI16device_discoverySaIS6_EERKS5_I14device_detailsSaISB_EERKS5_I4poolSaISG_EEtRNS_10NvmLibraryE
libixpdimm-core.so.1:_ZN4core16memory_allocator15MemoryAllocatorD0Ev
libixpdimm-core.so.1:_ZN4core16memory_allocator15MemoryAllocatorD1Ev
libixpdimm-core.so.1:_ZN4core16memory_allocator15MemoryAllocatorD2Ev
libixpdimm-core.so.1:_ZN4core16memory_allocator16LayoutStepMemory21newBytesWereAllocatedERKNS0_22MemoryAllocationLayoutEy
libixpdimm-core.so.1:_ZN4core16memory_allocator16LayoutStepMemory22alignPartitionBoundaryERKNS0_23MemoryAllocationRequestERNS0_22MemoryAllocationLayoutE
libixpdimm-core.so.1:_ZN4core16memory_allocator16LayoutStepMemory24getAlignedMemoryGoalSizeERKNS0_4DimmERK11config_goal
libixpdimm-core.so.1:_ZN4core16memory_allocator16LayoutStepMemory24layoutMemoryModeCapacityERKNS0_23MemoryAllocationRequestERNS0_22MemoryAllocationLayoutE
libixpdimm-core.so.1:_ZN4core16memory_allocator16LayoutStepMemory27getBytesAllocatedFromLayoutERKNS0_22MemoryAllocationLayoutE
libixpdimm-core.so.1:_ZN4core16memory_allocator16LayoutStepMemory36layoutMaximumSymmetricalBytesOnDimmsEyRKSt6vectorINS0_4DimmESaIS3_EERNS0_22MemoryAllocationLayoutE
libixpdimm-core.so.1:_ZN4core16memory_allocator16LayoutStepMemory40getAlignedPersistentPartitionCapacityGiBEyy
libixpdimm-core.so.1:_ZN4core16memory_allocator16LayoutStepMemory7executeERKNS0_23MemoryAllocationRequestERNS0_22MemoryAllocationLayoutE
libixpdimm-core.so.1:_ZN4core16memory_allocator16LayoutStepMemoryC1Ev
libixpdimm-core.so.1:_ZN4core16memory_allocator16LayoutStepMemoryC2Ev
libixpdimm-core.so.1:_ZN4core16memory_allocator16LayoutStepMemoryD0Ev
libixpdimm-core.so.1:_ZN4core16memory_allocator16LayoutStepMemoryD1Ev
libixpdimm-core.so.1:_ZN4core16memory_allocator16LayoutStepMemoryD2Ev
libixpdimm-core.so.1:_ZN4core16memory_allocator18LayoutStepReserved18getTotalADCapacityERKNS0_23MemoryAllocationRequestERNS0_22MemoryAllocationLayoutE
libixpdimm-core.so.1:_ZN4core16memory_allocator18LayoutStepReserved34shrinkAppDirectPerReservedCapacityERKNS0_23MemoryAllocationRequestEyRNS0_22MemoryAllocationLayoutE
libixpdimm-core.so.1:_ZN4core16memory_allocator18LayoutStepReserved7executeERKNS0_23MemoryAllocationRequestERNS0_22MemoryAllocationLayoutE
libixpdimm-core.so.1:_ZN4core16memory_allocator18LayoutStepReservedC1Ev
libixpdimm-core.so.1:_ZN4core16memory_allocator18LayoutStepReservedC2Ev
libixpdimm-core.so.1:_ZN4core16memory_allocator18LayoutStepReservedD0Ev
libixpdimm-core.so.1:_ZN4core16memory_allocator18LayoutStepReservedD1Ev
libixpdimm-core.so.1:_ZN4core16memory_allocator18LayoutStepReservedD2Ev
libixpdimm-core.so.1:_ZN4core16memory_allocator19LayoutStepAppDirect12layoutExtentERKNS0_23MemoryAllocationRequestERNS0_22MemoryAllocationLayoutE
libixpdimm-core.so.1:_ZN4core16memory_allocator19LayoutStepAppDirect19layoutInterleaveSetERKSt6vectorINS0_4DimmESaIS3_EEyRNS0_22MemoryAllocationLayoutE
libixpdimm-core.so.1:_ZN4core16memory_allocator19LayoutStepAppDirect19removeDimmsFromListERKSt6vectorINS0_4DimmESaIS3_EERS5_
libixpdimm-core.so.1:_ZN4core16memory_allocator19LayoutStepAppDirect20initNextInterleaveIdERKNS0_22MemoryAllocationLayoutE
libixpdimm-core.so.1:_ZN4core16memory_allocator19LayoutStepAppDirect22getDimmsSortedBySocketERKSt6vectorINS0_4DimmESaIS3_EE
libixpdimm-core.so.1:_ZN4core16memory_allocator19LayoutStepAppDirect25addExtentCapacityToLayoutERNS0_22MemoryAllocationLayoutE
libixpdimm-core.so.1:_ZN4core16memory_allocator19LayoutStepAppDirect26requestExtentIsInterleavedERKNS0_23MemoryAllocationRequestE
libixpdimm-core.so.1:_ZN4core16memory_allocator19LayoutStepAppDirect27getExtentCapacityFromLayoutERKNS0_22MemoryAllocationLayoutE
libixpdimm-core.so.1:_ZN4core16memory_allocator19LayoutStepAppDirect27updateGoalWithInterleaveSetER11config_goalyRKSt6vectorINS0_4DimmESaIS5_EE
libixpdimm-core.so.1:_ZN4core16memory_allocator19LayoutStepAppDirect29allRequestedCapacityAllocatedERKNS0_23MemoryAllocationRequestERNS0_22MemoryAllocationLayoutE
libixpdimm-core.so.1:_ZN4core16memory_allocator19LayoutStepAppDirect29getInterleaveWaysFromNumDimmsEm
libixpdimm-core.so.1:_ZN4core16memory_allocator19LayoutStepAppDirect30removeUnavailableDimmsFromListERNS0_22MemoryAllocationLayoutERSt6vectorINS0_4DimmESaIS5_EE
libixpdimm-core.so.1:_ZN4core16memory_allocator19LayoutStepAppDirect31layoutInterleavedExtentOnSocketERKSt6vectorINS0_4DimmESaIS3_EERNS0_22MemoryAllocationLayoutE
libixpdimm-core.so.1:_ZN4core16memory_allocator19LayoutStepAppDirect33checkTotalExtentCapacityAllocatedERKNS0_23MemoryAllocationRequestERNS0_22MemoryAllocationLayoutE
libixpdimm-core.so.1:_ZN4core16memory_allocator19LayoutStepAppDirect33getLargestSetOfInterleavableDimmsERKSt6vectorINS0_4DimmESaIS3_EE
libixpdimm-core.so.1:_ZN4core16memory_allocator19LayoutStepAppDirect37updateGoalParametersWithInterleaveSetERyRtR21app_direct_attributesyRKSt6vectorINS0_4DimmESaIS7_EE
libixpdimm-core.so.1:_ZN4core16memory_allocator19LayoutStepAppDirect39layoutInterleavedExtentOnRequestedDimmsERKSt6vectorINS0_4DimmESaIS3_EERNS0_22MemoryAllocationLayoutE
libixpdimm-core.so.1:_ZN4core16memory_allocator19LayoutStepAppDirect43layoutUnallocatedCapacityWithNonInterleavedERKSt6vectorINS0_4DimmESaIS3_EERNS0_22MemoryAllocationLayoutE
libixpdimm-core.so.1:_ZN4core16memory_allocator19LayoutStepAppDirect7executeERKNS0_23MemoryAllocationRequestERNS0_22MemoryAllocationLayoutE
libixpdimm-core.so.1:_ZN4core16memory_allocator19LayoutStepAppDirectC1ERNS0_20MemoryAllocationUtilE
libixpdimm-core.so.1:_ZN4core16memory_allocator19LayoutStepAppDirectC2ERNS0_20MemoryAllocationUtilE
libixpdimm-core.so.1:_ZN4core16memory_allocator19LayoutStepAppDirectD0Ev
libixpdimm-core.so.1:_ZN4core16memory_allocator19LayoutStepAppDirectD1Ev
libixpdimm-core.so.1:_ZN4core16memory_allocator19LayoutStepAppDirectD2Ev
libixpdimm-core.so.1:_ZN4core16memory_allocator19RuleDimmListInvalid21checkIfSocketIdsMatchEN9__gnu_cxx17__normal_iteratorIPKNS0_4DimmESt6vectorIS4_SaIS4_EEEENS3_IPK16device_discoveryS7_ISB_SaISB_EEEE
libixpdimm-core.so.1:_ZN4core16memory_allocator19RuleDimmListInvalid22checkIfDimmListIsValidERKSt6vectorINS0_4DimmESaIS3_EE
libixpdimm-core.so.1:_ZN4core16memory_allocator19RuleDimmListInvalid23checkIfMemChannelsMatchEN9__gnu_cxx17__normal_iteratorIPKNS0_4DimmESt6vectorIS4_SaIS4_EEEENS3_IPK16device_discoveryS7_ISB_SaISB_EEEE
libixpdimm-core.so.1:_ZN4core16memory_allocator19RuleDimmListInvalid26checkIfDimmCapacitiesMatchEN9__gnu_cxx17__normal_iteratorIPKNS0_4DimmESt6vectorIS4_SaIS4_EEEENS3_IPK16device_discoveryS7_ISB_SaISB_EEEE
libixpdimm-core.so.1:_ZN4core16memory_allocator19RuleDimmListInvalid26checkIfMemControllersMatchEN9__gnu_cxx17__normal_iteratorIPKNS0_4DimmESt6vectorIS4_SaIS4_EEEENS3_IPK16device_discoveryS7_ISB_SaISB_EEEE
libixpdimm-core.so.1:_ZN4core16memory_allocator19RuleDimmListInvalid30checkifDimmsInRequestAreUniqueERKSt6vectorINS0_4DimmESaIS3_EE
libixpdimm-core.so.1:_ZN4core16memory_allocator19RuleDimmListInvalid6verifyERKNS0_23MemoryAllocationRequestE
libixpdimm-core.so.1:_ZN4core16memory_allocator19RuleDimmListInvalidC1ESt6vectorI16device_discoverySaIS3_EE
libixpdimm-core.so.1:_ZN4core16memory_allocator19RuleDimmListInvalidC2ESt6vectorI16device_discoverySaIS3_EE
libixpdimm-core.so.1:_ZN4core16memory_allocator19RuleDimmListInvalidD0Ev
libixpdimm-core.so.1:_ZN4core16memory_allocator19RuleDimmListInvalidD1Ev
libixpdimm-core.so.1:_ZN4core16memory_allocator19RuleDimmListInvalidD2Ev
libixpdimm-core.so.1:_ZN4core16memory_allocator19RuleNamespacesExist23requestIsMemoryModeOnlyERKNS0_23MemoryAllocationRequestE
libixpdimm-core.so.1:_ZN4core16memory_allocator19RuleNamespacesExist36requestIsOkWithGetNamespaceErrorCodeERKNS0_23MemoryAllocationRequestEi
libixpdimm-core.so.1:_ZN4core16memory_allocator19RuleNamespacesExist6verifyERKNS0_23MemoryAllocationRequestE
libixpdimm-core.so.1:_ZN4core16memory_allocator19RuleNamespacesExistC1ERNS_10NvmLibraryE
libixpdimm-core.so.1:_ZN4core16memory_allocator19RuleNamespacesExistC2ERNS_10NvmLibraryE
libixpdimm-core.so.1:_ZN4core16memory_allocator19RuleNamespacesExistD0Ev
libixpdimm-core.so.1:_ZN4core16memory_allocator19RuleNamespacesExistD1Ev
libixpdimm-core.so.1:_ZN4core16memory_allocator19RuleNamespacesExistD2Ev
libixpdimm-core.so.1:_ZN4core16memory_allocator20MemoryAllocationUtil21deviceDiscoveryToDimmERK16device_discovery
libixpdimm-core.so.1:_ZN4core16memory_allocator20MemoryAllocationUtil31getNextAvailableInterleaveSetIdERKNS0_22MemoryAllocationLayoutE
libixpdimm-core.so.1:_ZN4core16memory_allocator20MemoryAllocationUtil32getDimmInterleaveInfoMaxSetIndexERKNSt7__cxx1112basic_stringIcSt11char_traitsIcESaIcEEE
libixpdimm-core.so.1:_ZN4core16memory_allocator20MemoryAllocationUtil32getLastInterleaveSetIdFromLayoutERKNS0_22MemoryAllocationLayoutERt
libixpdimm-core.so.1:_ZN4core16memory_allocator20MemoryAllocationUtil37getLastInterleaveSetIdFromConfigGoalsERt
libixpdimm-core.so.1:_ZN4core16memory_allocator20MemoryAllocationUtil37getRecommendedInterleaveFormatForWaysE15interleave_ways
libixpdimm-core.so.1:_ZN4core16memory_allocator20MemoryAllocationUtil39getLastInterleaveSetIdFromCurrentConfigERt
libixpdimm-core.so.1:_ZN4core16memory_allocator20MemoryAllocationUtil9getSocketEi
libixpdimm-core.so.1:_ZN4core16memory_allocator20MemoryAllocationUtilC1ERNS_10NvmLibraryE
libixpdimm-core.so.1:_ZN4core16memory_allocator20MemoryAllocationUtilC2ERNS_10NvmLibraryE
libixpdimm-core.so.1:_ZN4core16memory_allocator20MemoryAllocationUtilD0Ev
libixpdimm-core.so.1:_ZN4core16memory_allocator20MemoryAllocationUtilD1Ev
libixpdimm-core.so.1:_ZN4core16memory_allocator20MemoryAllocationUtilD2Ev
libixpdimm-core.so.1:_ZN4core16memory_allocator21RuleDimmHasConfigGoal20dimmHasUnappliedGoalERKNSt7__cxx1112basic_stringIcSt11char_traitsIcESaIcEEE
libixpdimm-core.so.1:_ZN4core16memory_allocator21RuleDimmHasConfigGoal6verifyERKNS0_23MemoryAllocationRequestE
libixpdimm-core.so.1:_ZN4core16memory_allocator21RuleDimmHasConfigGoalC1ERNS_10NvmLibraryE
libixpdimm-core.so.1:_ZN4core16memory_allocator21RuleDimmHasConfigGoalC2ERNS_10NvmLibraryE
libixpdimm-core.so.1:_ZN4core16memory_allocator21RuleDimmHasConfigGoalD0Ev
libixpdimm-core.so.1:_ZN4core16memory_allocator21RuleDimmHasConfigGoalD1Ev
libixpdimm-core.so.1:_ZN4core16memory_allocator21RuleDimmHasConfigGoalD2Ev
libixpdimm-core.so.1:_ZN4core16memory_allocator21RuleRejectLockedDimms12isDimmLockedERKNS0_4DimmE
libixpdimm-core.so.1:_ZN4core16memory_allocator21RuleRejectLockedDimms21isSecurityStateLockedE10lock_state
libixpdimm-core.so.1:_ZN4core16memory_allocator21RuleRejectLockedDimms6verifyERKNS0_23MemoryAllocationRequestE
libixpdimm-core.so.1:_ZN4core16memory_allocator21RuleRejectLockedDimmsC1ERKSt6vectorI16device_discoverySaIS3_EE
libixpdimm-core.so.1:_ZN4core16memory_allocator21RuleRejectLockedDimmsC2ERKSt6vectorI16device_discoverySaIS3_EE
libixpdimm-core.so.1:_ZN4core16memory_allocator21RuleRejectLockedDimmsD0Ev
libixpdimm-core.so.1:_ZN4core16memory_allocator21RuleRejectLockedDimmsD1Ev
libixpdimm-core.so.1:_ZN4core16memory_allocator21RuleRejectLockedDimmsD2Ev
libixpdimm-core.so.1:_ZN4core16memory_allocator23MemoryAllocationRequest18setAppDirectExtentERKNS0_15AppDirectExtentE
libixpdimm-core.so.1:_ZN4core16memory_allocator23MemoryAllocationRequest22setReservedCapacityGiBEy
libixpdimm-core.so.1:_ZN4core16memory_allocator23MemoryAllocationRequest24setMemoryModeCapacityGiBEy
libixpdimm-core.so.1:_ZN4core16memory_allocator23MemoryAllocationRequest7addDimmERKNS0_4DimmE
libixpdimm-core.so.1:_ZN4core16memory_allocator23MemoryAllocationRequest8setDimmsERKSt6vectorINS0_4DimmESaIS3_EE
libixpdimm-core.so.1:_ZN4core16memory_allocator23MemoryAllocationRequestC1Ev
libixpdimm-core.so.1:_ZN4core16memory_allocator23MemoryAllocationRequestC2Ev
libixpdimm-core.so.1:_ZN4core16memory_allocator23MemoryAllocationRequestD0Ev
libixpdimm-core.so.1:_ZN4core16memory_allocator23MemoryAllocationRequestD1Ev
libixpdimm-core.so.1:_ZN4core16memory_allocator23MemoryAllocationRequestD2Ev
libixpdimm-core.so.1:_ZN4core16memory_allocator25RuleAppDirectNotSupported15formatSupportedERKNS0_15AppDirectExtentE
libixpdimm-core.so.1:_ZN4core16memory_allocator25RuleAppDirectNotSupported24verifyAppDirectSupportedEv
libixpdimm-core.so.1:_ZN4core16memory_allocator25RuleAppDirectNotSupported32verifyAppDirectSettingsSupportedERKNS0_23MemoryAllocationRequestE
libixpdimm-core.so.1:_ZN4core16memory_allocator25RuleAppDirectNotSupported6verifyERKNS0_23MemoryAllocationRequestE
libixpdimm-core.so.1:_ZN4core16memory_allocator25RuleAppDirectNotSupportedC1ERK16nvm_capabilities
libixpdimm-core.so.1:_ZN4core16memory_allocator25RuleAppDirectNotSupportedC2ERK16nvm_capabilities
libixpdimm-core.so.1:_ZN4core16memory_allocator25RuleAppDirectNotSupportedD0Ev
libixpdimm-core.so.1:_ZN4core16memory_allocator25RuleAppDirectNotSupportedD1Ev
libixpdimm-core.so.1:_ZN4core16memory_allocator25RuleAppDirectNotSupportedD2Ev
libixpdimm-core.so.1:_ZN4core16memory_allocator27RulePartialSocketConfigured11deviceIsNewEPc
libixpdimm-core.so.1:_ZN4core16memory_allocator27RulePartialSocketConfigured19getRequestedSocketsB5cxx11ESt6vectorINS0_4DimmESaIS3_EE
libixpdimm-core.so.1:_ZN4core16memory_allocator27RulePartialSocketConfigured24getSetOfAllDimmsOnSocketB5cxx11Et
libixpdimm-core.so.1:_ZN4core16memory_allocator27RulePartialSocketConfigured24getSetOfNewDimmsOnSocketB5cxx11Et
libixpdimm-core.so.1:_ZN4core16memory_allocator27RulePartialSocketConfigured24validateRequestForSocketERKSt6vectorINS0_4DimmESaIS3_EEt
libixpdimm-core.so.1:_ZN4core16memory_allocator27RulePartialSocketConfigured30getSetOfRequestedDimmsOnSocketB5cxx11ERKSt6vectorINS0_4DimmESaIS3_EEt
libixpdimm-core.so.1:_ZN4core16memory_allocator27RulePartialSocketConfigured6verifyERKNS0_23MemoryAllocationRequestE
libixpdimm-core.so.1:_ZN4core16memory_allocator27RulePartialSocketConfiguredC1ESt6vectorI16device_discoverySaIS3_EERNS_10NvmLibraryE
libixpdimm-core.so.1:_ZN4core16memory_allocator27RulePartialSocketConfiguredC2ESt6vectorI16device_discoverySaIS3_EERNS_10NvmLibraryE
libixpdimm-core.so.1:_ZN4core16memory_allocator27RulePartialSocketConfiguredD0Ev
libixpdimm-core.so.1:_ZN4core16memory_allocator27RulePartialSocketConfiguredD1Ev
libixpdimm-core.so.1:_ZN4core16memory_allocator27RulePartialSocketConfiguredD2Ev
libixpdimm-core.so.1:_ZN4core16memory_allocator28InterleaveableDimmSetBuilder16validateDimmListEv
libixpdimm-core.so.1:_ZN4core16memory_allocator28InterleaveableDimmSetBuilder24dimmsHaveValidChannelIdsEv
libixpdimm-core.so.1:_ZN4core16memory_allocator28InterleaveableDimmSetBuilder25dimmsAreOnMultipleSocketsEv
libixpdimm-core.so.1:_ZN4core16memory_allocator28InterleaveableDimmSetBuilder33getLargestSetOfInterleavableDimmsEv
libixpdimm-core.so.1:_ZN4core16memory_allocator28InterleaveableDimmSetBuilder37getDimmsFromListMatchingInterleaveSetEi
libixpdimm-core.so.1:_ZN4core16memory_allocator28InterleaveableDimmSetBuilder8setDimmsERKSt6vectorINS0_4DimmESaIS3_EE
libixpdimm-core.so.1:_ZN4core16memory_allocator28InterleaveableDimmSetBuilderC1Ev
libixpdimm-core.so.1:_ZN4core16memory_allocator28InterleaveableDimmSetBuilderC2Ev
libixpdimm-core.so.1:_ZN4core16memory_allocator28InterleaveableDimmSetBuilderD0Ev
libixpdimm-core.so.1:_ZN4core16memory_allocator28InterleaveableDimmSetBuilderD1Ev
libixpdimm-core.so.1:_ZN4core16memory_allocator28InterleaveableDimmSetBuilderD2Ev
libixpdimm-core.so.1:_ZN4core16memory_allocator30MemoryAllocationRequestBuilder10addDimmIdsERKSt6vectorINSt7__cxx1112basic_stringIcSt11char_traitsIcESaIcEEESaIS8_EE
libixpdimm-core.so.1:_ZN4core16memory_allocator30MemoryAllocationRequestBuilder11getAllDimmsEv
libixpdimm-core.so.1:_ZN4core16memory_allocator30MemoryAllocationRequestBuilder12addSocketIdsERKSt6vectorItSaItEE
libixpdimm-core.so.1:_ZN4core16memory_allocator30MemoryAllocationRequestBuilder16getRequestedUidsB5cxx11Ev
libixpdimm-core.so.1:_ZN4core16memory_allocator30MemoryAllocationRequestBuilder17getDimmFromDeviceERNS_6device6DeviceE
libixpdimm-core.so.1:_ZN4core16memory_allocator30MemoryAllocationRequestBuilder17getRequestedDimmsEv
libixpdimm-core.so.1:_ZN4core16memory_allocator30MemoryAllocationRequestBuilder18getAppDirectExtentEv
libixpdimm-core.so.1:_ZN4core16memory_allocator30MemoryAllocationRequestBuilder19buildMemoryCapacityEv
libixpdimm-core.so.1:_ZN4core16memory_allocator30MemoryAllocationRequestBuilder19buildRequestedDimmsEv
libixpdimm-core.so.1:_ZN4core16memory_allocator30MemoryAllocationRequestBuilder21buildReservedCapacityEv
libixpdimm-core.so.1:_ZN4core16memory_allocator30MemoryAllocationRequestBuilder21getUniqueUidsFromListERKSt6vectorINSt7__cxx1112basic_stringIcSt11char_traitsIcESaIcEEESaIS8_EE
libixpdimm-core.so.1:_ZN4core16memory_allocator30MemoryAllocationRequestBuilder21setReservedPercentageEj
libixpdimm-core.so.1:_ZN4core16memory_allocator30MemoryAllocationRequestBuilder22buildAppDirectCapacityEv
libixpdimm-core.so.1:_ZN4core16memory_allocator30MemoryAllocationRequestBuilder23setMemoryModePercentageEj
libixpdimm-core.so.1:_ZN4core16memory_allocator30MemoryAllocationRequestBuilder27getUidsFromRequestedDimmIdsB5cxx11Ev
libixpdimm-core.so.1:_ZN4core16memory_allocator30MemoryAllocationRequestBuilder27getUidsFromRequestedSocketsB5cxx11Ev
libixpdimm-core.so.1:_ZN4core16memory_allocator30MemoryAllocationRequestBuilder35getPersistentCapacityGiBFromRequestEv
libixpdimm-core.so.1:_ZN4core16memory_allocator30MemoryAllocationRequestBuilder37getTotalCapacityBytesFromRequestDimmsEv
libixpdimm-core.so.1:_ZN4core16memory_allocator30MemoryAllocationRequestBuilder37setPersistentTypeAppDirectInterleavedEv
libixpdimm-core.so.1:_ZN4core16memory_allocator30MemoryAllocationRequestBuilder40setPersistentTypeAppDirectNonInterleavedEv
libixpdimm-core.so.1:_ZN4core16memory_allocator30MemoryAllocationRequestBuilder5buildEv
libixpdimm-core.so.1:_ZN4core16memory_allocator30MemoryAllocationRequestBuilderC1ERNS_6device13DeviceServiceE
libixpdimm-core.so.1:_ZN4core16memory_allocator30MemoryAllocationRequestBuilderC2ERNS_6device13DeviceServiceE
libixpdimm-core.so.1:_ZN4core16memory_allocator32LayoutStepLimitTotalMappedMemory12shrinkMemoryERNS0_22MemoryAllocationLayoutE
libixpdimm-core.so.1:_ZN4core16memory_allocator32LayoutStepLimitTotalMappedMemory15initSocketDimmsEtSt6vectorINS0_4DimmESaIS3_EE
libixpdimm-core.so.1:_ZN4core16memory_allocator32LayoutStepLimitTotalMappedMemory16shrinkAppDirect1ERNS0_22MemoryAllocationLayoutE
libixpdimm-core.so.1:_ZN4core16memory_allocator32LayoutStepLimitTotalMappedMemory16shrinkAppDirect2ERNS0_22MemoryAllocationLayoutE
libixpdimm-core.so.1:_ZN4core16memory_allocator32LayoutStepLimitTotalMappedMemory17initPcatType6infoEv
libixpdimm-core.so.1:_ZN4core16memory_allocator32LayoutStepLimitTotalMappedMemory17shrinkLayoutGoalsERNS0_22MemoryAllocationLayoutE
libixpdimm-core.so.1:_ZN4core16memory_allocator32LayoutStepLimitTotalMappedMemory17shrinkSizePerDimmEyRy
libixpdimm-core.so.1:_ZN4core16memory_allocator32LayoutStepLimitTotalMappedMemory19getTotal2LMCapacityERKSt6vectorINS0_4DimmESaIS3_EERNS0_22MemoryAllocationLayoutE
libixpdimm-core.so.1:_ZN4core16memory_allocator32LayoutStepLimitTotalMappedMemory20initReqConfigGoalMapERKNS0_23MemoryAllocationRequestERKNS0_22MemoryAllocationLayoutESt6vectorINS0_4DimmESaIS9_EE
libixpdimm-core.so.1:_ZN4core16memory_allocator32LayoutStepLimitTotalMappedMemory22initializeExceedsLimitEv
libixpdimm-core.so.1:_ZN4core16memory_allocator32LayoutStepLimitTotalMappedMemory22mappedSizeExceedsLimitEv
libixpdimm-core.so.1:_ZN4core16memory_allocator32LayoutStepLimitTotalMappedMemory22shrinkLayoutCapacitiesERKNS0_23MemoryAllocationRequestERNS0_22MemoryAllocationLayoutE
libixpdimm-core.so.1:_ZN4core16memory_allocator32LayoutStepLimitTotalMappedMemory27initCurrentDeviceDetailsMapERKNS0_23MemoryAllocationRequestE
libixpdimm-core.so.1:_ZN4core16memory_allocator32LayoutStepLimitTotalMappedMemory37calculateTotalMappedCapacityPerSocketEtSt6vectorI14device_detailsSaIS3_EE6socketS2_I11config_goalSaIS7_EES2_INS0_4DimmESaISA_EE
libixpdimm-core.so.1:_ZN4core16memory_allocator32LayoutStepLimitTotalMappedMemory7executeERKNS0_23MemoryAllocationRequestERNS0_22MemoryAllocationLayoutE
libixpdimm-core.so.1:_ZN4core16memory_allocator32LayoutStepLimitTotalMappedMemoryC1ESt6vectorI14device_detailsSaIS3_EERNS0_20MemoryAllocationUtilE
libixpdimm-core.so.1:_ZN4core16memory_allocator32LayoutStepLimitTotalMappedMemoryC2ESt6vectorI14device_detailsSaIS3_EERNS0_20MemoryAllocationUtilE
libixpdimm-core.so.1:_ZN4core16memory_allocator32LayoutStepLimitTotalMappedMemoryD0Ev
libixpdimm-core.so.1:_ZN4core16memory_allocator32LayoutStepLimitTotalMappedMemoryD1Ev
libixpdimm-core.so.1:_ZN4core16memory_allocator32LayoutStepLimitTotalMappedMemoryD2Ev
libixpdimm-core.so.1:_ZN4core16memory_allocator33RuleMirroredAppDirectNotSupported6verifyERKNS0_23MemoryAllocationRequestE
libixpdimm-core.so.1:_ZN4core16memory_allocator33RuleMirroredAppDirectNotSupportedC1Ev
libixpdimm-core.so.1:_ZN4core16memory_allocator33RuleMirroredAppDirectNotSupportedC2Ev
libixpdimm-core.so.1:_ZN4core16memory_allocator33RuleMirroredAppDirectNotSupportedD0Ev
libixpdimm-core.so.1:_ZN4core16memory_allocator33RuleMirroredAppDirectNotSupportedD1Ev
libixpdimm-core.so.1:_ZN4core16memory_allocator33RuleMirroredAppDirectNotSupportedD2Ev
libixpdimm-core.so.1:_ZN4core16memory_allocator33RuleProvisionCapacityNotSupported6verifyERKNS0_23MemoryAllocationRequestE
libixpdimm-core.so.1:_ZN4core16memory_allocator33RuleProvisionCapacityNotSupportedC1ERK16nvm_capabilities
libixpdimm-core.so.1:_ZN4core16memory_allocator33RuleProvisionCapacityNotSupportedC2ERK16nvm_capabilities
libixpdimm-core.so.1:_ZN4core16memory_allocator33RuleProvisionCapacityNotSupportedD0Ev
libixpdimm-core.so.1:_ZN4core16memory_allocator33RuleProvisionCapacityNotSupportedD1Ev
libixpdimm-core.so.1:_ZN4core16memory_allocator33RuleProvisionCapacityNotSupportedD2Ev
libixpdimm-core.so.1:_ZN4core16memory_allocator34LayoutStepCheckCurrentVolatileMode7executeERKNS0_23MemoryAllocationRequestERNS0_22MemoryAllocationLayoutE
libixpdimm-core.so.1:_ZN4core16memory_allocator34LayoutStepCheckCurrentVolatileModeC1ERK21platform_capabilities
libixpdimm-core.so.1:_ZN4core16memory_allocator34LayoutStepCheckCurrentVolatileModeC2ERK21platform_capabilities
libixpdimm-core.so.1:_ZN4core16memory_allocator34LayoutStepCheckCurrentVolatileModeD0Ev
libixpdimm-core.so.1:_ZN4core16memory_allocator34LayoutStepCheckCurrentVolatileModeD1Ev
libixpdimm-core.so.1:_ZN4core16memory_allocator34LayoutStepCheckCurrentVolatileModeD2Ev
libixpdimm-core.so.1:_ZN4core16memory_allocator34PostLayoutAddressDecoderLimitCheck18getSocketIdForDimmERA37_c
libixpdimm-core.so.1:_ZN4core16memory_allocator34PostLayoutAddressDecoderLimitCheck23getConfigGoalsForSocketERKNS0_22MemoryAllocationLayoutEt
libixpdimm-core.so.1:_ZN4core16memory_allocator34PostLayoutAddressDecoderLimitCheck24getListOfSocketsInLayoutB5cxx11ERKNS0_22MemoryAllocationLayoutE
libixpdimm-core.so.1:_ZN4core16memory_allocator34PostLayoutAddressDecoderLimitCheck25getNumberOfIlsetsOnSocketERKNS0_22MemoryAllocationLayoutEt
libixpdimm-core.so.1:_ZN4core16memory_allocator34PostLayoutAddressDecoderLimitCheck34isInterleaveSetOverwrittenByLayoutERKNS0_22MemoryAllocationLayoutERK14interleave_set
libixpdimm-core.so.1:_ZN4core16memory_allocator34PostLayoutAddressDecoderLimitCheck40getNumberOfUnchangedInterleaveSetsInPoolERKNS0_22MemoryAllocationLayoutERK4pool
libixpdimm-core.so.1:_ZN4core16memory_allocator34PostLayoutAddressDecoderLimitCheck43getNumberOfConfigGoalInterleaveSetsOnSocketERKNS0_22MemoryAllocationLayoutEt
libixpdimm-core.so.1:_ZN4core16memory_allocator34PostLayoutAddressDecoderLimitCheck46getNumberOfUnchangedPoolInterleaveSetsOnSocketERKNS0_22MemoryAllocationLayoutEt
libixpdimm-core.so.1:_ZN4core16memory_allocator34PostLayoutAddressDecoderLimitCheck6verifyERKNS0_23MemoryAllocationRequestERKNS0_22MemoryAllocationLayoutE
libixpdimm-core.so.1:_ZN4core16memory_allocator34PostLayoutAddressDecoderLimitCheckC1ERKSt6vectorI16device_discoverySaIS3_EERKS2_I4poolSaIS8_EEt
libixpdimm-core.so.1:_ZN4core16memory_allocator34PostLayoutAddressDecoderLimitCheckC2ERKSt6vectorI16device_discoverySaIS3_EERKS2_I4poolSaIS8_EEt
libixpdimm-core.so.1:_ZN4core16memory_allocator34PostLayoutAddressDecoderLimitCheckD0Ev
libixpdimm-core.so.1:_ZN4core16memory_allocator34PostLayoutAddressDecoderLimitCheckD1Ev
libixpdimm-core.so.1:_ZN4core16memory_allocator34PostLayoutAddressDecoderLimitCheckD2Ev
libixpdimm-core.so.1:_ZN4core16memory_allocator34RuleMemoryModeCapacityNotSupported6verifyERKNS0_23MemoryAllocationRequestE
libixpdimm-core.so.1:_ZN4core16memory_allocator34RuleMemoryModeCapacityNotSupportedC1ERK16nvm_capabilities
libixpdimm-core.so.1:_ZN4core16memory_allocator34RuleMemoryModeCapacityNotSupportedC2ERK16nvm_capabilities
libixpdimm-core.so.1:_ZN4core16memory_allocator34RuleMemoryModeCapacityNotSupportedD0Ev
libixpdimm-core.so.1:_ZN4core16memory_allocator34RuleMemoryModeCapacityNotSupportedD1Ev
libixpdimm-core.so.1:_ZN4core16memory_allocator34RuleMemoryModeCapacityNotSupportedD2Ev
libixpdimm-core.so.1:_ZN4core16memory_allocator37LayoutStepCheckAsymmetricalPopulation31socketHasAsymmetricalSizedDimmsERKSt6vectorINS0_4DimmESaIS3_EE
libixpdimm-core.so.1:_ZN4core16memory_allocator37LayoutStepCheckAsymmetricalPopulation35socketHasAsymmetricalDimmPopulationERKSt6vectorINS0_4DimmESaIS3_EE
libixpdimm-core.so.1:_ZN4core16memory_allocator37LayoutStepCheckAsymmetricalPopulation7executeERKNS0_23MemoryAllocationRequestERNS0_22MemoryAllocationLayoutE
libixpdimm-core.so.1:_ZN4core16memory_allocator37LayoutStepCheckAsymmetricalPopulationC1Ev
libixpdimm-core.so.1:_ZN4core16memory_allocator37LayoutStepCheckAsymmetricalPopulationC2Ev
libixpdimm-core.so.1:_ZN4core16memory_allocator37LayoutStepCheckAsymmetricalPopulationD0Ev
libixpdimm-core.so.1:_ZN4core16memory_allocator37LayoutStepCheckAsymmetricalPopulationD1Ev
libixpdimm-core.so.1:_ZN4core16memory_allocator37LayoutStepCheckAsymmetricalPopulationD2Ev
libixpdimm-core.so.1:_ZN4core16memory_allocator37LayoutStepCheckRequestLayoutDeviation20findPercentDeviationEyyy
libixpdimm-core.so.1:_ZN4core16memory_allocator37LayoutStepCheckRequestLayoutDeviation29isLayoutDeviationWithinBoundsEd
libixpdimm-core.so.1:_ZN4core16memory_allocator37LayoutStepCheckRequestLayoutDeviation32isMemoryCapacityLayoutAcceptableERKNS0_23MemoryAllocationRequestERNS0_22MemoryAllocationLayoutE
libixpdimm-core.so.1:_ZN4core16memory_allocator37LayoutStepCheckRequestLayoutDeviation35isAppDirectCapacityLayoutAcceptableERKNS0_23MemoryAllocationRequestERNS0_22MemoryAllocationLayoutE
libixpdimm-core.so.1:_ZN4core16memory_allocator37LayoutStepCheckRequestLayoutDeviation44getNonReservedAppDirectCapacityGiBFromLayoutERKNS0_23MemoryAllocationRequestERKNS0_22MemoryAllocationLayoutE
libixpdimm-core.so.1:_ZN4core16memory_allocator37LayoutStepCheckRequestLayoutDeviation7executeERKNS0_23MemoryAllocationRequestERNS0_22MemoryAllocationLayoutE
libixpdimm-core.so.1:_ZN4core16memory_allocator37LayoutStepCheckRequestLayoutDeviationC1Ev
libixpdimm-core.so.1:_ZN4core16memory_allocator37LayoutStepCheckRequestLayoutDeviationC2Ev
libixpdimm-core.so.1:_ZN4core16memory_allocator37LayoutStepCheckRequestLayoutDeviationD0Ev
libixpdimm-core.so.1:_ZN4core16memory_allocator37LayoutStepCheckRequestLayoutDeviationD1Ev
libixpdimm-core.so.1:_ZN4core16memory_allocator37LayoutStepCheckRequestLayoutDeviationD2Ev
libixpdimm-core.so.1:_ZN4core16memory_allocator38LayoutStepCheckDriverSupportsAppDirect7executeERKNS0_23MemoryAllocationRequestERNS0_22MemoryAllocationLayoutE
libixpdimm-core.so.1:_ZN4core16memory_allocator38LayoutStepCheckDriverSupportsAppDirectC1ERK12nvm_features
libixpdimm-core.so.1:_ZN4core16memory_allocator38LayoutStepCheckDriverSupportsAppDirectC2ERK12nvm_features
libixpdimm-core.so.1:_ZN4core16memory_allocator38LayoutStepCheckDriverSupportsAppDirectD0Ev
libixpdimm-core.so.1:_ZN4core16memory_allocator38LayoutStepCheckDriverSupportsAppDirectD1Ev
libixpdimm-core.so.1:_ZN4core16memory_allocator38LayoutStepCheckDriverSupportsAppDirectD2Ev
libixpdimm-core.so.1:_ZN4core16memory_allocator41LayoutStepAppDirectSettingsNotRecommended17formatRecommendedERKNS0_15AppDirectExtentE
libixpdimm-core.so.1:_ZN4core16memory_allocator41LayoutStepAppDirectSettingsNotRecommended7executeERKNS0_23MemoryAllocationRequestERNS0_22MemoryAllocationLayoutE
libixpdimm-core.so.1:_ZN4core16memory_allocator41LayoutStepAppDirectSettingsNotRecommendedC1ERK21platform_capabilities
libixpdimm-core.so.1:_ZN4core16memory_allocator41LayoutStepAppDirectSettingsNotRecommendedC2ERK21platform_capabilities
libixpdimm-core.so.1:_ZN4core16memory_allocator41LayoutStepAppDirectSettingsNotRecommendedD0Ev
libixpdimm-core.so.1:_ZN4core16memory_allocator41LayoutStepAppDirectSettingsNotRecommendedD1Ev
libixpdimm-core.so.1:_ZN4core16memory_allocator41LayoutStepAppDirectSettingsNotRecommendedD2Ev
libixpdimm-core.so.1:_ZN4core18firmware_interface10FwCommands13getFwCommandsEv
libixpdimm-core.so.1:_ZN4core18firmware_interface10FwCommands16fwGetPayload_BsrEjRNSt7__cxx1112basic_stringIcSt11char_traitsIcESaIcEEE
libixpdimm-core.so.1:_ZN4core18firmware_interface10FwCommands19fwGetPayload_FormatEjhhRNSt7__cxx1112basic_stringIcSt11char_traitsIcESaIcEEE
libixpdimm-core.so.1:_ZN4core18firmware_interface10FwCommands21fwPayloadToString_BsrB5cxx11EPK14fwcmd_bsr_data
libixpdimm-core.so.1:_ZN4core18firmware_interface10FwCommands22dsm_err_to_nvm_lib_errE9pt_result
libixpdimm-core.so.1:_ZN4core18firmware_interface10FwCommands23fwGetPayload_EnableDimmEjRNSt7__cxx1112basic_stringIcSt11char_traitsIcESaIcEEE
libixpdimm-core.so.1:_ZN4core18firmware_interface10FwCommands23fwGetPayload_FreezeLockEjRNSt7__cxx1112basic_stringIcSt11char_traitsIcESaIcEEE
libixpdimm-core.so.1:_ZN4core18firmware_interface10FwCommands23fwGetPayload_FwLoadFlagEjRNSt7__cxx1112basic_stringIcSt11char_traitsIcESaIcEEE
libixpdimm-core.so.1:_ZN4core18firmware_interface10FwCommands23fwGetPayload_SystemTimeEjRNSt7__cxx1112basic_stringIcSt11char_traitsIcESaIcEEE
libixpdimm-core.so.1:_ZN4core18firmware_interface10FwCommands23fwGetPayload_UnlockUnitEjPKcRNSt7__cxx1112basic_stringIcSt11char_traitsIcESaIcEEE
libixpdimm-core.so.1:_ZN4core18firmware_interface10FwCommands24fwGetPayload_SecureEraseEjPKcRNSt7__cxx1112basic_stringIcSt11char_traitsIcESaIcEEE
libixpdimm-core.so.1:_ZN4core18firmware_interface10FwCommands24fw_mb_err_to_nvm_lib_errEi
libixpdimm-core.so.1:_ZN4core18firmware_interface10FwCommands25fwGetPayload_IdentifyDimmEjRNSt7__cxx1112basic_stringIcSt11char_traitsIcESaIcEEE
libixpdimm-core.so.1:_ZN4core18firmware_interface10FwCommands25fwPayloadToString_NsIndexB5cxx11EPK19fwcmd_ns_index_data
libixpdimm-core.so.1:_ZN4core18firmware_interface10FwCommands25fwPayloadToString_NsLabelB5cxx11EPK19fwcmd_ns_label_data
libixpdimm-core.so.1:_ZN4core18firmware_interface10FwCommands26fwGetPayload_PmonRegistersEjtRNSt7__cxx1112basic_stringIcSt11char_traitsIcESaIcEEE
libixpdimm-core.so.1:_ZN4core18firmware_interface10FwCommands26fwGetPayload_SetPassphraseEjPKcS3_RNSt7__cxx1112basic_stringIcSt11char_traitsIcESaIcEEE
libixpdimm-core.so.1:_ZN4core18firmware_interface10FwCommands27fwGetPayload_ConfigLockdownEjRNSt7__cxx1112basic_stringIcSt11char_traitsIcESaIcEEE
libixpdimm-core.so.1:_ZN4core18firmware_interface10FwCommands27fwGetPayload_DdrtIoInitInfoEjRNSt7__cxx1112basic_stringIcSt11char_traitsIcESaIcEEE
libixpdimm-core.so.1:_ZN4core18firmware_interface10FwCommands27fwPayloadFieldsToString_BsrB5cxx11EPK14fwcmd_bsr_data
libixpdimm-core.so.1:_ZN4core18firmware_interface10FwCommands28fwGetPayload_FwDebugLogLevelEjhRNSt7__cxx1112basic_stringIcSt11char_traitsIcESaIcEEE
libixpdimm-core.so.1:_ZN4core18firmware_interface10FwCommands28fwGetPayload_NamespaceLabelsEjhhjRNSt7__cxx1112basic_stringIcSt11char_traitsIcESaIcEEE
libixpdimm-core.so.1:_ZN4core18firmware_interface10FwCommands28fwGetPayload_SmartHealthInfoEjRNSt7__cxx1112basic_stringIcSt11char_traitsIcESaIcEEE
libixpdimm-core.so.1:_ZN4core18firmware_interface10FwCommands28fwPayloadToString_EnableDimmB5cxx11EPK22fwcmd_enable_dimm_data
libixpdimm-core.so.1:_ZN4core18firmware_interface10FwCommands28fwPayloadToString_FwLoadFlagB5cxx11EPK23fwcmd_fw_load_flag_data
libixpdimm-core.so.1:_ZN4core18firmware_interface10FwCommands28fwPayloadToString_NsLabelV11B5cxx11EPK24fwcmd_ns_label_v1_1_data
libixpdimm-core.so.1:_ZN4core18firmware_interface10FwCommands28fwPayloadToString_NsLabelV12B5cxx11EPK24fwcmd_ns_label_v1_2_data
libixpdimm-core.so.1:_ZN4core18firmware_interface10FwCommands28fwPayloadToString_SystemTimeB5cxx11EPK22fwcmd_system_time_data
libixpdimm-core.so.1:_ZN4core18firmware_interface10FwCommands29fwGetPayload_DieSparingPolicyEjRNSt7__cxx1112basic_stringIcSt11char_traitsIcESaIcEEE
libixpdimm-core.so.1:_ZN4core18firmware_interface10FwCommands29fwGetPayload_FirmwareDebugLogEjhjhRNSt7__cxx1112basic_stringIcSt11char_traitsIcESaIcEEE
libixpdimm-core.so.1:_ZN4core18firmware_interface10FwCommands29fwGetPayload_GetSecurityStateEjRNSt7__cxx1112basic_stringIcSt11char_traitsIcESaIcEEE
libixpdimm-core.so.1:_ZN4core18firmware_interface10FwCommands29fwPayloadToString_IdInfoTableB5cxx11EPK24fwcmd_id_info_table_data
libixpdimm-core.so.1:_ZN4core18firmware_interface10FwCommands30fwGetPayload_AddressRangeScrubEjRNSt7__cxx1112basic_stringIcSt11char_traitsIcESaIcEEE
libixpdimm-core.so.1:_ZN4core18firmware_interface10FwCommands30fwGetPayload_DimmPartitionInfoEjRNSt7__cxx1112basic_stringIcSt11char_traitsIcESaIcEEE
libixpdimm-core.so.1:_ZN4core18firmware_interface10FwCommands30fwGetPayload_DisablePassphraseEjPKcRNSt7__cxx1112basic_stringIcSt11char_traitsIcESaIcEEE
libixpdimm-core.so.1:_ZN4core18firmware_interface10FwCommands30fwGetPayload_FirmwareImageInfoEjRNSt7__cxx1112basic_stringIcSt11char_traitsIcESaIcEEE
libixpdimm-core.so.1:_ZN4core18firmware_interface10FwCommands30fwGetPayload_GetAlarmThresholdEjRNSt7__cxx1112basic_stringIcSt11char_traitsIcESaIcEEE
libixpdimm-core.so.1:_ZN4core18firmware_interface10FwCommands30fwGetPayload_SetAlarmThresholdEjhttRNSt7__cxx1112basic_stringIcSt11char_traitsIcESaIcEEE
libixpdimm-core.so.1:_ZN4core18firmware_interface10FwCommands30fwPayloadToString_IdentifyDimmB5cxx11EPK24fwcmd_identify_dimm_data
libixpdimm-core.so.1:_ZN4core18firmware_interface10FwCommands31fwGetPayload_PlatformConfigDataEjhhjRNSt7__cxx1112basic_stringIcSt11char_traitsIcESaIcEEE
libixpdimm-core.so.1:_ZN4core18firmware_interface10FwCommands31fwPayloadFieldsToString_NsIndexB5cxx11EPK19fwcmd_ns_index_data
libixpdimm-core.so.1:_ZN4core18firmware_interface10FwCommands31fwPayloadFieldsToString_NsLabelB5cxx11EPK19fwcmd_ns_label_data
libixpdimm-core.so.1:_ZN4core18firmware_interface10FwCommands31fwPayloadToString_PmonRegistersB5cxx11EPK25fwcmd_pmon_registers_data
libixpdimm-core.so.1:_ZN4core18firmware_interface10FwCommands32fwGetPayload_LongOperationStatusEjRNSt7__cxx1112basic_stringIcSt11char_traitsIcESaIcEEE
libixpdimm-core.so.1:_ZN4core18firmware_interface10FwCommands32fwPayloadToString_ConfigLockdownB5cxx11EPK26fwcmd_config_lockdown_data
libixpdimm-core.so.1:_ZN4core18firmware_interface10FwCommands32fwPayloadToString_DdrtIoInitInfoB5cxx11EPK28fwcmd_ddrt_io_init_info_data
libixpdimm-core.so.1:_ZN4core18firmware_interface10FwCommands33fwPayloadToString_FwDebugLogLevelB5cxx11EPK29fwcmd_fw_debug_log_level_data
libixpdimm-core.so.1:_ZN4core18firmware_interface10FwCommands33fwPayloadToString_NamespaceLabelsB5cxx11EPK27fwcmd_namespace_labels_data
libixpdimm-core.so.1:_ZN4core18firmware_interface10FwCommands33fwPayloadToString_SmartHealthInfoB5cxx11EPK28fwcmd_smart_health_info_data
libixpdimm-core.so.1:_ZN4core18firmware_interface10FwCommands34fwGetPayload_PowerManagementPolicyEjRNSt7__cxx1112basic_stringIcSt11char_traitsIcESaIcEEE
libixpdimm-core.so.1:_ZN4core18firmware_interface10FwCommands34fwPayloadFieldsToString_EnableDimmB5cxx11EPK22fwcmd_enable_dimm_data
libixpdimm-core.so.1:_ZN4core18firmware_interface10FwCommands34fwPayloadFieldsToString_FwLoadFlagB5cxx11EPK23fwcmd_fw_load_flag_data
libixpdimm-core.so.1:_ZN4core18firmware_interface10FwCommands34fwPayloadFieldsToString_NsLabelV11B5cxx11EPK24fwcmd_ns_label_v1_1_data
libixpdimm-core.so.1:_ZN4core18firmware_interface10FwCommands34fwPayloadFieldsToString_NsLabelV12B5cxx11EPK24fwcmd_ns_label_v1_2_data
libixpdimm-core.so.1:_ZN4core18firmware_interface10FwCommands34fwPayloadFieldsToString_SystemTimeB5cxx11EPK22fwcmd_system_time_data
libixpdimm-core.so.1:_ZN4core18firmware_interface10FwCommands34fwPayloadToString_ConfigInputTableB5cxx11EPK29fwcmd_config_input_table_data
libixpdimm-core.so.1:_ZN4core18firmware_interface10FwCommands34fwPayloadToString_DieSparingPolicyB5cxx11EPK29fwcmd_die_sparing_policy_data
libixpdimm-core.so.1:_ZN4core18firmware_interface10FwCommands34fwPayloadToString_FirmwareDebugLogB5cxx11EPK29fwcmd_firmware_debug_log_data
libixpdimm-core.so.1:_ZN4core18firmware_interface10FwCommands34fwPayloadToString_GetSecurityStateB5cxx11EPK29fwcmd_get_security_state_data
libixpdimm-core.so.1:_ZN4core18firmware_interface10FwCommands35convertFwcmdErrorCodeToNvmErrorCodeE16fwcmd_error_code
libixpdimm-core.so.1:_ZN4core18firmware_interface10FwCommands35fwPayloadFieldsToString_IdInfoTableB5cxx11EPK24fwcmd_id_info_table_data
libixpdimm-core.so.1:_ZN4core18firmware_interface10FwCommands35fwPayloadToString_AddressRangeScrubB5cxx11EPK30fwcmd_address_range_scrub_data
libixpdimm-core.so.1:_ZN4core18firmware_interface10FwCommands35fwPayloadToString_ConfigOutputTableB5cxx11EPK30fwcmd_config_output_table_data
libixpdimm-core.so.1:_ZN4core18firmware_interface10FwCommands35fwPayloadToString_DimmPartitionInfoB5cxx11EPK30fwcmd_dimm_partition_info_data
libixpdimm-core.so.1:_ZN4core18firmware_interface10FwCommands35fwPayloadToString_FirmwareImageInfoB5cxx11EPK30fwcmd_firmware_image_info_data
libixpdimm-core.so.1:_ZN4core18firmware_interface10FwCommands35fwPayloadToString_GetAlarmThresholdB5cxx11EPK30fwcmd_get_alarm_threshold_data
libixpdimm-core.so.1:_ZN4core18firmware_interface10FwCommands36fwGetPayload_GetSupportedSkuFeaturesEjRNSt7__cxx1112basic_stringIcSt11char_traitsIcESaIcEEE
libixpdimm-core.so.1:_ZN4core18firmware_interface10FwCommands36fwPayloadFieldsToString_IdentifyDimmB5cxx11EPK24fwcmd_identify_dimm_data
libixpdimm-core.so.1:_ZN4core18firmware_interface10FwCommands36fwPayloadToString_CurrentConfigTableB5cxx11EPK31fwcmd_current_config_table_data
libixpdimm-core.so.1:_ZN4core18firmware_interface10FwCommands36fwPayloadToString_PlatformConfigDataB5cxx11EPK31fwcmd_platform_config_data_data
libixpdimm-core.so.1:_ZN4core18firmware_interface10FwCommands37fwPayloadFieldsToString_PmonRegistersB5cxx11EPK25fwcmd_pmon_registers_data
libixpdimm-core.so.1:_ZN4core18firmware_interface10FwCommands37fwPayloadToString_LongOperationStatusB5cxx11EPK32fwcmd_long_operation_status_data
libixpdimm-core.so.1:_ZN4core18firmware_interface10FwCommands38fwPayloadFieldsToString_ConfigLockdownB5cxx11EPK26fwcmd_config_lockdown_data
libixpdimm-core.so.1:_ZN4core18firmware_interface10FwCommands38fwPayloadFieldsToString_DdrtIoInitInfoB5cxx11EPK28fwcmd_ddrt_io_init_info_data
libixpdimm-core.so.1:_ZN4core18firmware_interface10FwCommands39fwPayloadFieldsToString_FwDebugLogLevelB5cxx11EPK29fwcmd_fw_debug_log_level_data
libixpdimm-core.so.1:_ZN4core18firmware_interface10FwCommands39fwPayloadFieldsToString_NamespaceLabelsB5cxx11EPK27fwcmd_namespace_labels_data
libixpdimm-core.so.1:_ZN4core18firmware_interface10FwCommands39fwPayloadFieldsToString_SmartHealthInfoB5cxx11EPK28fwcmd_smart_health_info_data
libixpdimm-core.so.1:_ZN4core18firmware_interface10FwCommands39fwPayloadToString_PowerManagementPolicyB5cxx11EPK34fwcmd_power_management_policy_data
libixpdimm-core.so.1:_ZN4core18firmware_interface10FwCommands40fwGetPayload_IdentifyDimmCharacteristicsEjRNSt7__cxx1112basic_stringIcSt11char_traitsIcESaIcEEE
libixpdimm-core.so.1:_ZN4core18firmware_interface10FwCommands40fwPayloadFieldsToString_ConfigInputTableB5cxx11EPK29fwcmd_config_input_table_data
libixpdimm-core.so.1:_ZN4core18firmware_interface10FwCommands40fwPayloadFieldsToString_DieSparingPolicyB5cxx11EPK29fwcmd_die_sparing_policy_data
libixpdimm-core.so.1:_ZN4core18firmware_interface10FwCommands40fwPayloadFieldsToString_FirmwareDebugLogB5cxx11EPK29fwcmd_firmware_debug_log_data
libixpdimm-core.so.1:_ZN4core18firmware_interface10FwCommands40fwPayloadFieldsToString_GetSecurityStateB5cxx11EPK29fwcmd_get_security_state_data
libixpdimm-core.so.1:_ZN4core18firmware_interface10FwCommands40fwPayloadToString_DeviceIdentificationV1B5cxx11EPK35fwcmd_device_identification_v1_data
libixpdimm-core.so.1:_ZN4core18firmware_interface10FwCommands40fwPayloadToString_DeviceIdentificationV2B5cxx11EPK35fwcmd_device_identification_v2_data
libixpdimm-core.so.1:_ZN4core18firmware_interface10FwCommands41fwPayloadFieldsToString_AddressRangeScrubB5cxx11EPK30fwcmd_address_range_scrub_data
libixpdimm-core.so.1:_ZN4core18firmware_interface10FwCommands41fwPayloadFieldsToString_ConfigOutputTableB5cxx11EPK30fwcmd_config_output_table_data
libixpdimm-core.so.1:_ZN4core18firmware_interface10FwCommands41fwPayloadFieldsToString_DimmPartitionInfoB5cxx11EPK30fwcmd_dimm_partition_info_data
libixpdimm-core.so.1:_ZN4core18firmware_interface10FwCommands41fwPayloadFieldsToString_FirmwareImageInfoB5cxx11EPK30fwcmd_firmware_image_info_data
libixpdimm-core.so.1:_ZN4core18firmware_interface10FwCommands41fwPayloadFieldsToString_GetAlarmThresholdB5cxx11EPK30fwcmd_get_alarm_threshold_data
libixpdimm-core.so.1:_ZN4core18firmware_interface10FwCommands41fwPayloadToString_GetSupportedSkuFeaturesB5cxx11EPK37fwcmd_get_supported_sku_features_data
libixpdimm-core.so.1:_ZN4core18firmware_interface10FwCommands42fwPayloadFieldsToString_CurrentConfigTableB5cxx11EPK31fwcmd_current_config_table_data
libixpdimm-core.so.1:_ZN4core18firmware_interface10FwCommands42fwPayloadFieldsToString_PlatformConfigDataB5cxx11EPK31fwcmd_platform_config_data_data
libixpdimm-core.so.1:_ZN4core18firmware_interface10FwCommands42fwPayloadToString_PartitionSizeChangeTableB5cxx11EPK38fwcmd_partition_size_change_table_data
libixpdimm-core.so.1:_ZN4core18firmware_interface10FwCommands43fwPayloadFieldsToString_LongOperationStatusB5cxx11EPK32fwcmd_long_operation_status_data
libixpdimm-core.so.1:_ZN4core18firmware_interface10FwCommands43fwPayloadToString_Custom_PlatformConfigDataB5cxx11EP31fwcmd_platform_config_data_data
libixpdimm-core.so.1:_ZN4core18firmware_interface10FwCommands44fwGetPayload_OptionalConfigurationDataPolicyEjRNSt7__cxx1112basic_stringIcSt11char_traitsIcESaIcEEE
libixpdimm-core.so.1:_ZN4core18firmware_interface10FwCommands44fwPayloadToString_InterleaveInformationTableB5cxx11EPK39fwcmd_interleave_information_table_data
libixpdimm-core.so.1:_ZN4core18firmware_interface10FwCommands45fwPayloadFieldsToString_PowerManagementPolicyB5cxx11EPK34fwcmd_power_management_policy_data
libixpdimm-core.so.1:_ZN4core18firmware_interface10FwCommands45fwPayloadToString_IdentifyDimmCharacteristicsB5cxx11EPK40fwcmd_identify_dimm_characteristics_data
libixpdimm-core.so.1:_ZN4core18firmware_interface10FwCommands46fwPayloadFieldsToString_DeviceIdentificationV1B5cxx11EPK35fwcmd_device_identification_v1_data
libixpdimm-core.so.1:_ZN4core18firmware_interface10FwCommands46fwPayloadFieldsToString_DeviceIdentificationV2B5cxx11EPK35fwcmd_device_identification_v2_data
libixpdimm-core.so.1:_ZN4core18firmware_interface10FwCommands47fwPayloadFieldsToString_GetSupportedSkuFeaturesB5cxx11EPK37fwcmd_get_supported_sku_features_data
libixpdimm-core.so.1:_ZN4core18firmware_interface10FwCommands48fwPayloadFieldsToString_PartitionSizeChangeTableB5cxx11EPK38fwcmd_partition_size_change_table_data
libixpdimm-core.so.1:_ZN4core18firmware_interface10FwCommands49fwPayloadToString_OptionalConfigurationDataPolicyB5cxx11EPK45fwcmd_optional_configuration_data_policy_data
libixpdimm-core.so.1:_ZN4core18firmware_interface10FwCommands50fwPayloadFieldsToString_InterleaveInformationTableB5cxx11EPK39fwcmd_interleave_information_table_data
libixpdimm-core.so.1:_ZN4core18firmware_interface10FwCommands51fwPayloadFieldsToString_IdentifyDimmCharacteristicsB5cxx11EPK40fwcmd_identify_dimm_characteristics_data
libixpdimm-core.so.1:_ZN4core18firmware_interface10FwCommands55fwPayloadFieldsToString_OptionalConfigurationDataPolicyB5cxx11EPK45fwcmd_optional_configuration_data_policy_data
libixpdimm-core.so.1:_ZN4core18firmware_interface10FwCommandsC1ERKNS0_17FwCommandsWrapperE
libixpdimm-core.so.1:_ZN4core18firmware_interface10FwCommandsC1ERKS1_
libixpdimm-core.so.1:_ZN4core18firmware_interface10FwCommandsC2ERKNS0_17FwCommandsWrapperE
libixpdimm-core.so.1:_ZN4core18firmware_interface10FwCommandsC2ERKS1_
libixpdimm-core.so.1:_ZN4core18firmware_interface10FwCommandsD0Ev
libixpdimm-core.so.1:_ZN4core18firmware_interface10FwCommandsD1Ev
libixpdimm-core.so.1:_ZN4core18firmware_interface10FwCommandsD2Ev
libixpdimm-core.so.1:_ZN4core18firmware_interface10FwCommandsaSERKS1_
libixpdimm-core.so.1:_ZN4core18firmware_interface17FwCommandsWrapper12getFwWrapperEv
libixpdimm-core.so.1:_ZN4core18firmware_interface17FwCommandsWrapperC1Ev
libixpdimm-core.so.1:_ZN4core18firmware_interface17FwCommandsWrapperC2Ev
libixpdimm-core.so.1:_ZN4core18firmware_interface17FwCommandsWrapperD0Ev
libixpdimm-core.so.1:_ZN4core18firmware_interface17FwCommandsWrapperD1Ev
libixpdimm-core.so.1:_ZN4core18firmware_interface17FwCommandsWrapperD2Ev
libixpdimm-core.so.1:_ZN4core18firmware_interface22addInterleaveInfoTableEPNS0_10FwCommandsERNSt7__cxx1118basic_stringstreamIcSt11char_traitsIcESaIcEEEiPK39fwcmd_interleave_information_table_datai
libixpdimm-core.so.1:_ZN4core18firmware_interface27addPartitionSizeChangeTableEPNS0_10FwCommandsERNSt7__cxx1118basic_stringstreamIcSt11char_traitsIcESaIcEEEP38fwcmd_partition_size_change_table_datai
libixpdimm-core.so.1:_ZN4core4logs10LogService10getServiceEv
libixpdimm-core.so.1:_ZN4core4logs10LogService12getLogsCountEv
libixpdimm-core.so.1:_ZN4core4logs10LogService27getAllLogsInDescOrderbyTimeEv
libixpdimm-core.so.1:_ZN4core4logs3Log11getFileNameB5cxx11Ev
libixpdimm-core.so.1:_ZN4core4logs3Log11getLogLevelEv
libixpdimm-core.so.1:_ZN4core4logs3Log13getLineNumberEv
libixpdimm-core.so.1:_ZN4core4logs3Log13getLogMessageB5cxx11Ev
libixpdimm-core.so.1:_ZN4core4logs3Log4copyERKS1_
libixpdimm-core.so.1:_ZN4core4logs3Log7getTimeEv
libixpdimm-core.so.1:_ZN4core4logs3LogC1ERK7nvm_log
libixpdimm-core.so.1:_ZN4core4logs3LogC1ERKS1_
libixpdimm-core.so.1:_ZN4core4logs3LogC1Ev
libixpdimm-core.so.1:_ZN4core4logs3LogC2ERK7nvm_log
libixpdimm-core.so.1:_ZN4core4logs3LogC2ERKS1_
libixpdimm-core.so.1:_ZN4core4logs3LogC2Ev
libixpdimm-core.so.1:_ZN4core4logs3LogD0Ev
libixpdimm-core.so.1:_ZN4core4logs3LogD1Ev
libixpdimm-core.so.1:_ZN4core4logs3LogD2Ev
libixpdimm-core.so.1:_ZN4core4logs3LogaSERKS1_
libixpdimm-core.so.1:_ZN4core6Helper11stringToUidERKNSt7__cxx1112basic_stringIcSt11char_traitsIcESaIcEEEPc
libixpdimm-core.so.1:_ZN4core6Helper11uidToStringB5cxx11EPKc
libixpdimm-core.so.1:_ZN4core6Helper14isValidPoolUidENSt7__cxx1112basic_stringIcSt11char_traitsIcESaIcEEE
libixpdimm-core.so.1:_ZN4core6Helper15getErrorMessageB5cxx11Ei
libixpdimm-core.so.1:_ZN4core6Helper17getFormattedEventB5cxx11ERK5event
libixpdimm-core.so.1:_ZN4core6Helper19isValidNamespaceUidENSt7__cxx1112basic_stringIcSt11char_traitsIcESaIcEEE
libixpdimm-core.so.1:_ZN4core6Helper21getFormattedEventListB5cxx11ERKSt6vectorI5eventSaIS2_EE
libixpdimm-core.so.1:_ZN4core6device10findUidEndERKNSt7__cxx1112basic_stringIcSt11char_traitsIcESaIcEEE
libixpdimm-core.so.1:_ZN4core6device10isUidValidERKNSt7__cxx1112basic_stringIcSt11char_traitsIcESaIcEEE
libixpdimm-core.so.1:_ZN4core6device12findUidStartERKNSt7__cxx1112basic_stringIcSt11char_traitsIcESaIcEEE
libixpdimm-core.so.1:_ZN4core6device13DeviceService10getAllUidsB5cxx11Ev
libixpdimm-core.so.1:_ZN4core6device13DeviceService10getServiceEv
libixpdimm-core.so.1:_ZN4core6device13DeviceService13getAllDevicesEv
libixpdimm-core.so.1:_ZN4core6device13DeviceService17dumpDeviceSupportEPcS2_mPA4096_c
libixpdimm-core.so.1:_ZN4core6device13DeviceService17getManageableUidsB5cxx11Ev
libixpdimm-core.so.1:_ZN4core6device13DeviceService19getUidsForDeviceIdsERKSt6vectorINSt7__cxx1112basic_stringIcSt11char_traitsIcESaIcEEESaIS8_EE
libixpdimm-core.so.1:_ZN4core6device13DeviceService20modifyDeviceSettingsERKNSt7__cxx1112basic_stringIcSt11char_traitsIcESaIcEEEbb
libixpdimm-core.so.1:_ZN4core6device13DeviceService26getFirmwareApiVersionByUidERKNSt7__cxx1112basic_stringIcSt11char_traitsIcESaIcEEE
libixpdimm-core.so.1:_ZN4core6device13DeviceService31getUidForDeviceIdFromCollectionERKNSt7__cxx1112basic_stringIcSt11char_traitsIcESaIcEEERNS0_16DeviceCollectionE
libixpdimm-core.so.1:_ZN4core6device13DeviceService9getDeviceENSt7__cxx1112basic_stringIcSt11char_traitsIcESaIcEEE
libixpdimm-core.so.1:_ZN4core6device15TopologyService10getServiceEv
libixpdimm-core.so.1:_ZN4core6device15TopologyService16getAllTopologiesEv
libixpdimm-core.so.1:_ZN4core6device19FormatDeviceService10getServiceEv
libixpdimm-core.so.1:_ZN4core6device19FormatDeviceService16isFormatCompleteEj
libixpdimm-core.so.1:_ZN4core6device19FormatDeviceService19getLibraryErrorCodeER16fwcmd_error_code
libixpdimm-core.so.1:_ZN4core6device19FormatDeviceService20startFormatForDeviceEj
libixpdimm-core.so.1:_ZN4core6device19FormatDeviceService26isDeviceInFormattableStateERNS0_6DeviceE
libixpdimm-core.so.1:_ZN4core6device19FormatDeviceServiceC1ERNS_18firmware_interface17FwCommandsWrapperE
libixpdimm-core.so.1:_ZN4core6device19FormatDeviceServiceC2ERNS_18firmware_interface17FwCommandsWrapperE
libixpdimm-core.so.1:_ZN4core6device19FormatDeviceServiceD0Ev
libixpdimm-core.so.1:_ZN4core6device19FormatDeviceServiceD1Ev
libixpdimm-core.so.1:_ZN4core6device19FormatDeviceServiceD2Ev
libixpdimm-core.so.1:_ZN4core6device21DeviceFirmwareService10getServiceEv
libixpdimm-core.so.1:_ZN4core6device21DeviceFirmwareService15getFirmwareInfoERKNSt7__cxx1112basic_stringIcSt11char_traitsIcESaIcEEE
libixpdimm-core.so.1:_ZN4core6device21DeviceFirmwareServiceD0Ev
libixpdimm-core.so.1:_ZN4core6device21DeviceFirmwareServiceD1Ev
libixpdimm-core.so.1:_ZN4core6device21DeviceFirmwareServiceD2Ev
libixpdimm-core.so.1:_ZN4core6device28DeviceFirmwareInfoCollection5clearEv
libixpdimm-core.so.1:_ZN4core6device28DeviceFirmwareInfoCollection9push_backERNS0_18DeviceFirmwareInfoE
libixpdimm-core.so.1:_ZN4core6device28DeviceFirmwareInfoCollectionC1ERKS1_
libixpdimm-core.so.1:_ZN4core6device28DeviceFirmwareInfoCollectionC2ERKS1_
libixpdimm-core.so.1:_ZN4core6device28DeviceFirmwareInfoCollectionD1Ev
libixpdimm-core.so.1:_ZN4core6device28DeviceFirmwareInfoCollectionD2Ev
libixpdimm-core.so.1:_ZN4core6device28DeviceFirmwareInfoCollectionaSERKS1_
libixpdimm-core.so.1:_ZN4core6device28DeviceFirmwareInfoCollectionixERKNSt7__cxx1112basic_stringIcSt11char_traitsIcESaIcEEE
libixpdimm-core.so.1:_ZN4core6device6Device10getDetailsEv
libixpdimm-core.so.1:_ZN4core6device6Device10isMixedSkuEv
libixpdimm-core.so.1:_ZN4core6device6Device11getDeviceIdEv
libixpdimm-core.so.1:_ZN4core6device6Device11getSocketIdEv
libixpdimm-core.so.1:_ZN4core6device6Device11getVendorIdEv
libixpdimm-core.so.1:_ZN4core6device6Device12getArsStatusEv
libixpdimm-core.so.1:_ZN4core6device6Device12getBankLabelB5cxx11Ev
libixpdimm-core.so.1:_ZN4core6device6Device12getBytesReadEv
libixpdimm-core.so.1:_ZN4core6device6Device12getChannelIdEv
libixpdimm-core.so.1:_ZN4core6device6Device12getDataWidthEv
libixpdimm-core.so.1:_ZN4core6device6Device12getDiscoveryEv
libixpdimm-core.so.1:_ZN4core6device6Device12getHostReadsEv
libixpdimm-core.so.1:_ZN4core6device6Device12getIsMissingEv
libixpdimm-core.so.1:_ZN4core6device6Device12getLockStateEv
libixpdimm-core.so.1:_ZN4core6device6Device12isManageableEv
libixpdimm-core.so.1:_ZN4core6device6Device13getBlockReadsEv
libixpdimm-core.so.1:_ZN4core6device6Device13getBootStatusEv
libixpdimm-core.so.1:_ZN4core6device6Device13getFormFactorEv
libixpdimm-core.so.1:_ZN4core6device6Device13getFwLogLevelEv
libixpdimm-core.so.1:_ZN4core6device6Device13getFwRevisionB5cxx11Ev
libixpdimm-core.so.1:_ZN4core6device6Device13getHostWritesEv
libixpdimm-core.so.1:_ZN4core6device6Device13getMemoryTypeEv
libixpdimm-core.so.1:_ZN4core6device6Device13getPartNumberB5cxx11Ev
libixpdimm-core.so.1:_ZN4core6device6Device13getPhysicalIdEv
libixpdimm-core.so.1:_ZN4core6device6Device13getPowerLimitEv
libixpdimm-core.so.1:_ZN4core6device6Device13getRevisionIdEv
libixpdimm-core.so.1:_ZN4core6device6Device13getTotalWidthEv
libixpdimm-core.so.1:_ZN4core6device6Device14getBlockWritesEv
libixpdimm-core.so.1:_ZN4core6device6Device14getHealthStateEv
libixpdimm-core.so.1:_ZN4core6device6Device14getRawCapacityEv
libixpdimm-core.so.1:_ZN4core6device6Device14isSkuViolationEv
libixpdimm-core.so.1:_ZN4core6device6Device15getBytesWrittenEv
libixpdimm-core.so.1:_ZN4core6device6Device15getConfigStatusEv
libixpdimm-core.so.1:_ZN4core6device6Device15getDeviceHandleEv
libixpdimm-core.so.1:_ZN4core6device6Device15getFwApiVersionB5cxx11Ev
libixpdimm-core.so.1:_ZN4core6device6Device15getManufacturerB5cxx11Ev
libixpdimm-core.so.1:_ZN4core6device6Device15getSerialNumberB5cxx11Ev
libixpdimm-core.so.1:_ZN4core6device6Device16getDeviceLocatorB5cxx11Ev
libixpdimm-core.so.1:_ZN4core6device6Device16isActionRequiredEv
libixpdimm-core.so.1:_ZN4core6device6Device16isAitDramEnabledEv
libixpdimm-core.so.1:_ZN4core6device6Device17getAvgPowerBudgetEv
libixpdimm-core.so.1:_ZN4core6device6Device17getFwUpdateStatusEv
libixpdimm-core.so.1:_ZN4core6device6Device17getManufacturerIdEv
libixpdimm-core.so.1:_ZN4core6device6Device17getSanitizeStatusEv
libixpdimm-core.so.1:_ZN4core6device6Device18getChannelPositionEv
libixpdimm-core.so.1:_ZN4core6device6Device18getDieSparingLevelEv
libixpdimm-core.so.1:_ZN4core6device6Device18getPeakPowerBudgetEv
libixpdimm-core.so.1:_ZN4core6device6Device18getPerformanceTimeEv
libixpdimm-core.so.1:_ZN4core6device6Device18getSubsystemDeviceEv
libixpdimm-core.so.1:_ZN4core6device6Device18getSubsystemVendorEv
libixpdimm-core.so.1:_ZN4core6device6Device18isFirstFastRefreshEv
libixpdimm-core.so.1:_ZN4core6device6Device19getLastShutdownTimeEv
libixpdimm-core.so.1:_ZN4core6device6Device19getManufacturingLocEv
libixpdimm-core.so.1:_ZN4core6device6Device19getNodeControllerIdEv
libixpdimm-core.so.1:_ZN4core6device6Device19isDieSparingCapableEv
libixpdimm-core.so.1:_ZN4core6device6Device19isDieSparingEnabledEv
libixpdimm-core.so.1:_ZN4core6device6Device19isMemoryModeCapableEv
libixpdimm-core.so.1:_ZN4core6device6Device19isPassphraseCapableEv
libixpdimm-core.so.1:_ZN4core6device6Device20getCurrentViralStateEv
libixpdimm-core.so.1:_ZN4core6device6Device20getManufacturingDateEv
libixpdimm-core.so.1:_ZN4core6device6Device20getSubsystemRevisionEv
libixpdimm-core.so.1:_ZN4core6device6Device20isEraseCryptoCapableEv
libixpdimm-core.so.1:_ZN4core6device6Device20isViralPolicyEnabledEv
libixpdimm-core.so.1:_ZN4core6device6Device21getDeviceStatusHealthEv
libixpdimm-core.so.1:_ZN4core6device6Device21getDieSparesAvailableEv
libixpdimm-core.so.1:_ZN4core6device6Device21getLastShutdownStatusEv
libixpdimm-core.so.1:_ZN4core6device6Device21getManageabilityStateEv
libixpdimm-core.so.1:_ZN4core6device6Device21getMemoryCapabilitiesEv
libixpdimm-core.so.1:_ZN4core6device6Device21getMemoryControllerIdEv
libixpdimm-core.so.1:_ZN4core6device6Device21getTotalCapacityBytesEv
libixpdimm-core.so.1:_ZN4core6device6Device21isUnlockDeviceCapableEv
libixpdimm-core.so.1:_ZN4core6device6Device22getInjectedMediaErrorsEv
libixpdimm-core.so.1:_ZN4core6device6Device22getMemoryCapacityBytesEv
libixpdimm-core.so.1:_ZN4core6device6Device22isAppDirectModeCapableEv
libixpdimm-core.so.1:_ZN4core6device6Device23getActionRequiredEventsEv
libixpdimm-core.so.1:_ZN4core6device6Device23getInterfaceFormatCodesEv
libixpdimm-core.so.1:_ZN4core6device6Device23getSecurityCapabilitiesEv
libixpdimm-core.so.1:_ZN4core6device6Device23getStorageCapacityBytesEv
libixpdimm-core.so.1:_ZN4core6device6Device24getReservedCapacityBytesEv
libixpdimm-core.so.1:_ZN4core6device6Device24isManufacturingInfoValidEv
libixpdimm-core.so.1:_ZN4core6device6Device24isPowerManagementEnabledEv
libixpdimm-core.so.1:_ZN4core6device6Device25getAppDirectCapacityBytesEv
libixpdimm-core.so.1:_ZN4core6device6Device25getInjectedNonMediaErrorsEv
libixpdimm-core.so.1:_ZN4core6device6Device28getInaccessibleCapacityBytesEv
libixpdimm-core.so.1:_ZN4core6device6Device28getUnconfiguredCapacityBytesEv
libixpdimm-core.so.1:_ZN4core6device6Device29getFormattedManufacturingDateB5cxx11Et
libixpdimm-core.so.1:_ZN4core6device6Device29getLastShutdownStatusExtendedEv
libixpdimm-core.so.1:_ZN4core6device6Device4copyERKS1_
libixpdimm-core.so.1:_ZN4core6device6Device5isNewEv
libixpdimm-core.so.1:_ZN4core6device6Device6getSkuEv
libixpdimm-core.so.1:_ZN4core6device6Device6getUidB5cxx11Ev
libixpdimm-core.so.1:_ZN4core6device6Device8getSpeedEv
libixpdimm-core.so.1:_ZN4core6device6Device9getEventsEv
libixpdimm-core.so.1:_ZN4core6device6DeviceC1ERKS1_
libixpdimm-core.so.1:_ZN4core6device6DeviceC1ERNS_10NvmLibraryERK16device_discovery
libixpdimm-core.so.1:_ZN4core6device6DeviceC1Ev
libixpdimm-core.so.1:_ZN4core6device6DeviceC2ERKS1_
libixpdimm-core.so.1:_ZN4core6device6DeviceC2ERNS_10NvmLibraryERK16device_discovery
libixpdimm-core.so.1:_ZN4core6device6DeviceC2Ev
libixpdimm-core.so.1:_ZN4core6device6DeviceD0Ev
libixpdimm-core.so.1:_ZN4core6device6DeviceD1Ev
libixpdimm-core.so.1:_ZN4core6device6DeviceD2Ev
libixpdimm-core.so.1:_ZN4core6device6DeviceaSERKS1_
libixpdimm-core.so.1:_ZN4core6device6sensor10SensorTime10GetReadingB5cxx11Ev
libixpdimm-core.so.1:_ZN4core6device6sensor10SensorTime7GetNameB5cxx11Ev
libixpdimm-core.so.1:_ZN4core6device6sensor10SensorTimeC1E6sensor
libixpdimm-core.so.1:_ZN4core6device6sensor10SensorTimeC1Ev
libixpdimm-core.so.1:_ZN4core6device6sensor10SensorTimeC2E6sensor
libixpdimm-core.so.1:_ZN4core6device6sensor10SensorTimeC2Ev
libixpdimm-core.so.1:_ZN4core6device6sensor10SensorTimeD0Ev
libixpdimm-core.so.1:_ZN4core6device6sensor10SensorTimeD1Ev
libixpdimm-core.so.1:_ZN4core6device6sensor10SensorTimeD2Ev
libixpdimm-core.so.1:_ZN4core6device6sensor12SensorHealth7GetNameB5cxx11Ev
libixpdimm-core.so.1:_ZN4core6device6sensor12SensorHealthC1E6sensor
libixpdimm-core.so.1:_ZN4core6device6sensor12SensorHealthC1Ev
libixpdimm-core.so.1:_ZN4core6device6sensor12SensorHealthC2E6sensor
libixpdimm-core.so.1:_ZN4core6device6sensor12SensorHealthC2Ev
libixpdimm-core.so.1:_ZN4core6device6sensor12SensorHealthD0Ev
libixpdimm-core.so.1:_ZN4core6device6sensor12SensorHealthD1Ev
libixpdimm-core.so.1:_ZN4core6device6sensor12SensorHealthD2Ev
libixpdimm-core.so.1:_ZN4core6device6sensor12SensorUpTime7GetNameB5cxx11Ev
libixpdimm-core.so.1:_ZN4core6device6sensor12SensorUpTimeC1E6sensor
libixpdimm-core.so.1:_ZN4core6device6sensor12SensorUpTimeC1Ev
libixpdimm-core.so.1:_ZN4core6device6sensor12SensorUpTimeC2E6sensor
libixpdimm-core.so.1:_ZN4core6device6sensor12SensorUpTimeC2Ev
libixpdimm-core.so.1:_ZN4core6device6sensor12SensorUpTimeD0Ev
libixpdimm-core.so.1:_ZN4core6device6sensor12SensorUpTimeD1Ev
libixpdimm-core.so.1:_ZN4core6device6sensor12SensorUpTimeD2Ev
libixpdimm-core.so.1:_ZN4core6device6sensor13SensorCelsius10GetReadingB5cxx11Ev
libixpdimm-core.so.1:_ZN4core6device6sensor13SensorCelsius15GetEnabledStateB5cxx11Ev
libixpdimm-core.so.1:_ZN4core6device6sensor13SensorCelsius22GetUpperFatalThresholdB5cxx11Ev
libixpdimm-core.so.1:_ZN4core6device6sensor13SensorCelsius25GetLowerCriticalThresholdB5cxx11Ev
libixpdimm-core.so.1:_ZN4core6device6sensor13SensorCelsius25GetUpperCriticalThresholdB5cxx11Ev
libixpdimm-core.so.1:_ZN4core6device6sensor13SensorCelsius28GetLowerNonCriticalThresholdB5cxx11Ev
libixpdimm-core.so.1:_ZN4core6device6sensor13SensorCelsius28GetUpperNonCriticalThresholdB5cxx11Ev
libixpdimm-core.so.1:_ZN4core6device6sensor13SensorCelsius7GetNameB5cxx11Ev
libixpdimm-core.so.1:_ZN4core6device6sensor13SensorCelsius8baseUnitB5cxx11Ev
libixpdimm-core.so.1:_ZN4core6device6sensor13SensorCelsiusC1E6sensor
libixpdimm-core.so.1:_ZN4core6device6sensor13SensorCelsiusC1Ev
libixpdimm-core.so.1:_ZN4core6device6sensor13SensorCelsiusC2E6sensor
libixpdimm-core.so.1:_ZN4core6device6sensor13SensorCelsiusC2Ev
libixpdimm-core.so.1:_ZN4core6device6sensor13SensorCelsiusD0Ev
libixpdimm-core.so.1:_ZN4core6device6sensor13SensorCelsiusD1Ev
libixpdimm-core.so.1:_ZN4core6device6sensor13SensorCelsiusD2Ev
libixpdimm-core.so.1:_ZN4core6device6sensor13SensorFactory12CreateSensorE6sensor
libixpdimm-core.so.1:_ZN4core6device6sensor15SensorMediaTemp7GetNameB5cxx11Ev
libixpdimm-core.so.1:_ZN4core6device6sensor15SensorMediaTempC1E6sensor
libixpdimm-core.so.1:_ZN4core6device6sensor15SensorMediaTempC1Ev
libixpdimm-core.so.1:_ZN4core6device6sensor15SensorMediaTempC2E6sensor
libixpdimm-core.so.1:_ZN4core6device6sensor15SensorMediaTempC2Ev
libixpdimm-core.so.1:_ZN4core6device6sensor15SensorMediaTempD0Ev
libixpdimm-core.so.1:_ZN4core6device6sensor15SensorMediaTempD1Ev
libixpdimm-core.so.1:_ZN4core6device6sensor15SensorMediaTempD2Ev
libixpdimm-core.so.1:_ZN4core6device6sensor15SensorPwrCycles7GetNameB5cxx11Ev
libixpdimm-core.so.1:_ZN4core6device6sensor15SensorPwrCyclesC1E6sensor
libixpdimm-core.so.1:_ZN4core6device6sensor15SensorPwrCyclesC1Ev
libixpdimm-core.so.1:_ZN4core6device6sensor15SensorPwrCyclesC2E6sensor
libixpdimm-core.so.1:_ZN4core6device6sensor15SensorPwrCyclesC2Ev
libixpdimm-core.so.1:_ZN4core6device6sensor15SensorPwrCyclesD0Ev
libixpdimm-core.so.1:_ZN4core6device6sensor15SensorPwrCyclesD1Ev
libixpdimm-core.so.1:_ZN4core6device6sensor15SensorPwrCyclesD2Ev
libixpdimm-core.so.1:_ZN4core6device6sensor15SensorPwrOnTime7GetNameB5cxx11Ev
libixpdimm-core.so.1:_ZN4core6device6sensor15SensorPwrOnTimeC1E6sensor
libixpdimm-core.so.1:_ZN4core6device6sensor15SensorPwrOnTimeC1Ev
libixpdimm-core.so.1:_ZN4core6device6sensor15SensorPwrOnTimeC2E6sensor
libixpdimm-core.so.1:_ZN4core6device6sensor15SensorPwrOnTimeC2Ev
libixpdimm-core.so.1:_ZN4core6device6sensor15SensorPwrOnTimeD0Ev
libixpdimm-core.so.1:_ZN4core6device6sensor15SensorPwrOnTimeD1Ev
libixpdimm-core.so.1:_ZN4core6device6sensor15SensorPwrOnTimeD2Ev
libixpdimm-core.so.1:_ZN4core6device6sensor15SensorWearLevel7GetNameB5cxx11Ev
libixpdimm-core.so.1:_ZN4core6device6sensor15SensorWearLevel8baseUnitB5cxx11Ev
libixpdimm-core.so.1:_ZN4core6device6sensor15SensorWearLevelC1E6sensor
libixpdimm-core.so.1:_ZN4core6device6sensor15SensorWearLevelC1Ev
libixpdimm-core.so.1:_ZN4core6device6sensor15SensorWearLevelC2E6sensor
libixpdimm-core.so.1:_ZN4core6device6sensor15SensorWearLevelC2Ev
libixpdimm-core.so.1:_ZN4core6device6sensor15SensorWearLevelD0Ev
libixpdimm-core.so.1:_ZN4core6device6sensor15SensorWearLevelD1Ev
libixpdimm-core.so.1:_ZN4core6device6sensor15SensorWearLevelD2Ev
libixpdimm-core.so.1:_ZN4core6device6sensor16SensorPwrLimited7GetNameB5cxx11Ev
libixpdimm-core.so.1:_ZN4core6device6sensor16SensorPwrLimitedC1E6sensor
libixpdimm-core.so.1:_ZN4core6device6sensor16SensorPwrLimitedC1Ev
libixpdimm-core.so.1:_ZN4core6device6sensor16SensorPwrLimitedC2E6sensor
libixpdimm-core.so.1:_ZN4core6device6sensor16SensorPwrLimitedC2Ev
libixpdimm-core.so.1:_ZN4core6device6sensor16SensorPwrLimitedD0Ev
libixpdimm-core.so.1:_ZN4core6device6sensor16SensorPwrLimitedD1Ev
libixpdimm-core.so.1:_ZN4core6device6sensor16SensorPwrLimitedD2Ev
libixpdimm-core.so.1:_ZN4core6device6sensor19SensorFwErrorLogCnt7GetNameB5cxx11Ev
libixpdimm-core.so.1:_ZN4core6device6sensor19SensorFwErrorLogCntC1E6sensor
libixpdimm-core.so.1:_ZN4core6device6sensor19SensorFwErrorLogCntC1Ev
libixpdimm-core.so.1:_ZN4core6device6sensor19SensorFwErrorLogCntC2E6sensor
libixpdimm-core.so.1:_ZN4core6device6sensor19SensorFwErrorLogCntC2Ev
libixpdimm-core.so.1:_ZN4core6device6sensor19SensorFwErrorLogCntD0Ev
libixpdimm-core.so.1:_ZN4core6device6sensor19SensorFwErrorLogCntD1Ev
libixpdimm-core.so.1:_ZN4core6device6sensor19SensorFwErrorLogCntD2Ev
libixpdimm-core.so.1:_ZN4core6device6sensor19SensorSpareCapacity15GetEnabledStateB5cxx11Ev
libixpdimm-core.so.1:_ZN4core6device6sensor19SensorSpareCapacity7GetNameB5cxx11Ev
libixpdimm-core.so.1:_ZN4core6device6sensor19SensorSpareCapacity8baseUnitB5cxx11Ev
libixpdimm-core.so.1:_ZN4core6device6sensor19SensorSpareCapacityC1E6sensor
libixpdimm-core.so.1:_ZN4core6device6sensor19SensorSpareCapacityC1Ev
libixpdimm-core.so.1:_ZN4core6device6sensor19SensorSpareCapacityC2E6sensor
libixpdimm-core.so.1:_ZN4core6device6sensor19SensorSpareCapacityC2Ev
libixpdimm-core.so.1:_ZN4core6device6sensor19SensorSpareCapacityD0Ev
libixpdimm-core.so.1:_ZN4core6device6sensor19SensorSpareCapacityD1Ev
libixpdimm-core.so.1:_ZN4core6device6sensor19SensorSpareCapacityD2Ev
libixpdimm-core.so.1:_ZN4core6device6sensor20SensorControllerTemp7GetNameB5cxx11Ev
libixpdimm-core.so.1:_ZN4core6device6sensor20SensorControllerTempC1E6sensor
libixpdimm-core.so.1:_ZN4core6device6sensor20SensorControllerTempC1Ev
libixpdimm-core.so.1:_ZN4core6device6sensor20SensorControllerTempC2E6sensor
libixpdimm-core.so.1:_ZN4core6device6sensor20SensorControllerTempC2Ev
libixpdimm-core.so.1:_ZN4core6device6sensor20SensorControllerTempD0Ev
libixpdimm-core.so.1:_ZN4core6device6sensor20SensorControllerTempD1Ev
libixpdimm-core.so.1:_ZN4core6device6sensor20SensorControllerTempD2Ev
libixpdimm-core.so.1:_ZN4core6device6sensor21SensorUnsafeShutdowns7GetNameB5cxx11Ev
libixpdimm-core.so.1:_ZN4core6device6sensor21SensorUnsafeShutdownsC1E6sensor
libixpdimm-core.so.1:_ZN4core6device6sensor21SensorUnsafeShutdownsC1Ev
libixpdimm-core.so.1:_ZN4core6device6sensor21SensorUnsafeShutdownsC2E6sensor
libixpdimm-core.so.1:_ZN4core6device6sensor21SensorUnsafeShutdownsC2Ev
libixpdimm-core.so.1:_ZN4core6device6sensor21SensorUnsafeShutdownsD0Ev
libixpdimm-core.so.1:_ZN4core6device6sensor21SensorUnsafeShutdownsD1Ev
libixpdimm-core.so.1:_ZN4core6device6sensor21SensorUnsafeShutdownsD2Ev
libixpdimm-core.so.1:_ZN4core6device6sensor6Sensor10GetReadingB5cxx11Ev
libixpdimm-core.so.1:_ZN4core6device6sensor6Sensor10initializeEv
libixpdimm-core.so.1:_ZN4core6device6sensor6Sensor15GetEnabledStateB5cxx11Ev
libixpdimm-core.so.1:_ZN4core6device6sensor6Sensor18scaleNumberBaseTenEyPiS3_
libixpdimm-core.so.1:_ZN4core6device6sensor6Sensor22GetUpperFatalThresholdB5cxx11Ev
libixpdimm-core.so.1:_ZN4core6device6sensor6Sensor25GetLowerCriticalThresholdB5cxx11Ev
libixpdimm-core.so.1:_ZN4core6device6sensor6Sensor25GetSettableThresholdTypesB5cxx11Ev
libixpdimm-core.so.1:_ZN4core6device6sensor6Sensor25GetUpperCriticalThresholdB5cxx11Ev
libixpdimm-core.so.1:_ZN4core6device6sensor6Sensor26GetSupportedThresholdTypesB5cxx11Ev
libixpdimm-core.so.1:_ZN4core6device6sensor6Sensor28GetLowerNonCriticalThresholdB5cxx11Ev
libixpdimm-core.so.1:_ZN4core6device6sensor6Sensor28GetUpperNonCriticalThresholdB5cxx11Ev
libixpdimm-core.so.1:_ZN4core6device6sensor6Sensor30IsUpperFatalThresholdSupportedEv
libixpdimm-core.so.1:_ZN4core6device6sensor6Sensor33IsLowerCriticalThresholdSupportedEv
libixpdimm-core.so.1:_ZN4core6device6sensor6Sensor33IsUpperCriticalThresholdSupportedEv
libixpdimm-core.so.1:_ZN4core6device6sensor6Sensor36IsLowerNonCriticalThresholdSupportedEv
libixpdimm-core.so.1:_ZN4core6device6sensor6Sensor36IsUpperNonCriticalThresholdSupportedEv
libixpdimm-core.so.1:_ZN4core6device6sensor6Sensor7GetNameB5cxx11Ev
libixpdimm-core.so.1:_ZN4core6device6sensor6Sensor8GetStateB5cxx11Ev
libixpdimm-core.so.1:_ZN4core6device6sensor6Sensor8baseUnitB5cxx11Ev
libixpdimm-core.so.1:_ZN4core6device6sensor6SensorC1E6sensor
libixpdimm-core.so.1:_ZN4core6device6sensor6SensorC1Ev
libixpdimm-core.so.1:_ZN4core6device6sensor6SensorC2E6sensor
libixpdimm-core.so.1:_ZN4core6device6sensor6SensorC2Ev
libixpdimm-core.so.1:_ZN4core6device6sensor6SensorD0Ev
libixpdimm-core.so.1:_ZN4core6device6sensor6SensorD1Ev
libixpdimm-core.so.1:_ZN4core6device6sensor6SensorD2Ev
libixpdimm-core.so.1:_ZN4core6device8Topology11getSocketIdEv
libixpdimm-core.so.1:_ZN4core6device8Topology11getTopologyEv
libixpdimm-core.so.1:_ZN4core6device8Topology12getBankLabelB5cxx11Ev
libixpdimm-core.so.1:_ZN4core6device8Topology12getChannelIdEv
libixpdimm-core.so.1:_ZN4core6device8Topology12getDataWidthEv
libixpdimm-core.so.1:_ZN4core6device8Topology12getDiscoveryEv
libixpdimm-core.so.1:_ZN4core6device8Topology13getFormFactorEv
libixpdimm-core.so.1:_ZN4core6device8Topology13getMemoryTypeEv
libixpdimm-core.so.1:_ZN4core6device8Topology13getPartNumberB5cxx11Ev
libixpdimm-core.so.1:_ZN4core6device8Topology13getPhysicalIDEv
libixpdimm-core.so.1:_ZN4core6device8Topology13getTotalWidthEv
libixpdimm-core.so.1:_ZN4core6device8Topology13initDiscoveryEPK16device_discovery
libixpdimm-core.so.1:_ZN4core6device8Topology14getRawCapacityEv
libixpdimm-core.so.1:_ZN4core6device8Topology15getDeviceHandleEv
libixpdimm-core.so.1:_ZN4core6device8Topology16getDeviceLocatorB5cxx11Ev
libixpdimm-core.so.1:_ZN4core6device8Topology18getChannelPositionEv
libixpdimm-core.so.1:_ZN4core6device8Topology19getNodeControllerIdEv
libixpdimm-core.so.1:_ZN4core6device8Topology21getMemoryControllerIdEv
libixpdimm-core.so.1:_ZN4core6device8Topology5cloneEv
libixpdimm-core.so.1:_ZN4core6device8Topology6getUidB5cxx11Ev
libixpdimm-core.so.1:_ZN4core6device8Topology8getSpeedEv
libixpdimm-core.so.1:_ZN4core6system10SystemInfo11getHostNameB5cxx11Ev
libixpdimm-core.so.1:_ZN4core6system10SystemInfo11getLogLevelEv
libixpdimm-core.so.1:_ZN4core6system10SystemInfo11getMixedSkuEv
libixpdimm-core.so.1:_ZN4core6system10SystemInfo12getOsVersionB5cxx11Ev
libixpdimm-core.so.1:_ZN4core6system10SystemInfo15getSkuViolationEv
libixpdimm-core.so.1:_ZN4core6system10SystemInfo4copyERKS1_
libixpdimm-core.so.1:_ZN4core6system10SystemInfo5cloneEv
libixpdimm-core.so.1:_ZN4core6system10SystemInfo9getLogMaxEv
libixpdimm-core.so.1:_ZN4core6system10SystemInfo9getOsNameB5cxx11Ev
libixpdimm-core.so.1:_ZN4core6system10SystemInfo9getOsTypeEv
libixpdimm-core.so.1:_ZN4core6system10SystemInfoC1ER4hostii
libixpdimm-core.so.1:_ZN4core6system10SystemInfoC1ERKS1_
libixpdimm-core.so.1:_ZN4core6system10SystemInfoC1Ev
libixpdimm-core.so.1:_ZN4core6system10SystemInfoC2ER4hostii
libixpdimm-core.so.1:_ZN4core6system10SystemInfoC2ERKS1_
libixpdimm-core.so.1:_ZN4core6system10SystemInfoC2Ev
libixpdimm-core.so.1:_ZN4core6system10SystemInfoD0Ev
libixpdimm-core.so.1:_ZN4core6system10SystemInfoD1Ev
libixpdimm-core.so.1:_ZN4core6system10SystemInfoD2Ev
libixpdimm-core.so.1:_ZN4core6system10SystemInfoaSERKS1_
libixpdimm-core.so.1:_ZN4core6system12SoftwareInfo16getDriverVersionB5cxx11Ev
libixpdimm-core.so.1:_ZN4core6system12SoftwareInfo17isDriverInstalledEv
libixpdimm-core.so.1:_ZN4core6system12SoftwareInfo17isDriverSupportedEv
libixpdimm-core.so.1:_ZN4core6system12SoftwareInfo21getDriverBuildVersionEv
libixpdimm-core.so.1:_ZN4core6system12SoftwareInfo21getDriverMajorVersionEv
libixpdimm-core.so.1:_ZN4core6system12SoftwareInfo21getDriverMinorVersionEv
libixpdimm-core.so.1:_ZN4core6system12SoftwareInfo22getDriverHotfixVersionEv
libixpdimm-core.so.1:_ZN4core6system12SoftwareInfo22getMgmtSoftwareVersionB5cxx11Ev
libixpdimm-core.so.1:_ZN4core6system12SoftwareInfo27getMgmtSoftwareBuildVersionEv
libixpdimm-core.so.1:_ZN4core6system12SoftwareInfo27getMgmtSoftwareMajorVersionEv
libixpdimm-core.so.1:_ZN4core6system12SoftwareInfo27getMgmtSoftwareMinorVersionEv
libixpdimm-core.so.1:_ZN4core6system12SoftwareInfo28getMgmtSoftwareHotfixVersionEv
libixpdimm-core.so.1:_ZN4core6system12SoftwareInfo5cloneEv
libixpdimm-core.so.1:_ZN4core6system12SoftwareInfoC1ERK12sw_inventory
libixpdimm-core.so.1:_ZN4core6system12SoftwareInfoC1ERKS1_
libixpdimm-core.so.1:_ZN4core6system12SoftwareInfoC1Ev
libixpdimm-core.so.1:_ZN4core6system12SoftwareInfoC2ERK12sw_inventory
libixpdimm-core.so.1:_ZN4core6system12SoftwareInfoC2ERKS1_
libixpdimm-core.so.1:_ZN4core6system12SoftwareInfoC2Ev
libixpdimm-core.so.1:_ZN4core6system12SoftwareInfoD0Ev
libixpdimm-core.so.1:_ZN4core6system12SoftwareInfoD1Ev
libixpdimm-core.so.1:_ZN4core6system12SoftwareInfoD2Ev
libixpdimm-core.so.1:_ZN4core6system12SoftwareInfoaSERKS1_
libixpdimm-core.so.1:_ZN4core6system12SystemSocket11getSocketIdEv
libixpdimm-core.so.1:_ZN4core6system12SystemSocket13getSocketTypeEv
libixpdimm-core.so.1:_ZN4core6system12SystemSocket15getSocketFamilyEv
libixpdimm-core.so.1:_ZN4core6system12SystemSocket16getSocketTypeStrB5cxx11Ev
libixpdimm-core.so.1:_ZN4core6system12SystemSocket18getSocketFamilyStrB5cxx11Ev
libixpdimm-core.so.1:_ZN4core6system12SystemSocket21getSocketManufacturerB5cxx11Ev
libixpdimm-core.so.1:_ZN4core6system12SystemSocket25isCapacitySkuingSupportedEv
libixpdimm-core.so.1:_ZN4core6system12SystemSocket26getSocketMappedMemoryLimitEv
libixpdimm-core.so.1:_ZN4core6system12SystemSocket26getSocketTotalMappedMemoryEv
libixpdimm-core.so.1:_ZN4core6system12SystemSocket5cloneEv
libixpdimm-core.so.1:_ZN4core6system12SystemSocketC1ERK6socketRNS0_18SmbiosType4UtilityE
libixpdimm-core.so.1:_ZN4core6system12SystemSocketC2ERK6socketRNS0_18SmbiosType4UtilityE
libixpdimm-core.so.1:_ZN4core6system13SystemService10getServiceEv
libixpdimm-core.so.1:_ZN4core6system13SystemService11getHostInfoEv
libixpdimm-core.so.1:_ZN4core6system13SystemService11getHostNameB5cxx11Ev
libixpdimm-core.so.1:_ZN4core6system13SystemService15getAllSocketIdsEv
libixpdimm-core.so.1:_ZN4core6system13SystemService15getSoftwareInfoEv
libixpdimm-core.so.1:_ZN4core6system13SystemService18getMemoryResourcesEv
libixpdimm-core.so.1:_ZN4core6system13SystemService22getSocketsForSocketIdsERKSt6vectorItSaItEE
libixpdimm-core.so.1:_ZN4core6system13SystemServiceC1ERNS_10NvmLibraryE
libixpdimm-core.so.1:_ZN4core6system13SystemServiceC2ERNS_10NvmLibraryE
libixpdimm-core.so.1:_ZN4core6system13SystemServiceD0Ev
libixpdimm-core.so.1:_ZN4core6system13SystemServiceD1Ev
libixpdimm-core.so.1:_ZN4core6system13SystemServiceD2Ev
libixpdimm-core.so.1:_ZN4core6system18SmbiosType4Utility10getUtilityEv
libixpdimm-core.so.1:_ZN4core6system21SystemMemoryResources16getTotalCapacityEv
libixpdimm-core.so.1:_ZN4core6system21SystemMemoryResources22getTotalMemoryCapacityEv
libixpdimm-core.so.1:_ZN4core6system21SystemMemoryResources23getTotalStorageCapacityEv
libixpdimm-core.so.1:_ZN4core6system21SystemMemoryResources24getTotalReservedCapacityEv
libixpdimm-core.so.1:_ZN4core6system21SystemMemoryResources25getTotalAppDirectCapacityEv
libixpdimm-core.so.1:_ZN4core6system21SystemMemoryResources28getTotalInaccessibleCapacityEv
libixpdimm-core.so.1:_ZN4core6system21SystemMemoryResources28getTotalUnconfiguredCapacityEv
libixpdimm-core.so.1:_ZN4core6system21SystemMemoryResources4copyERKS1_
libixpdimm-core.so.1:_ZN4core6system21SystemMemoryResources5cloneEv
libixpdimm-core.so.1:_ZN4core6system21SystemMemoryResourcesC1E17device_capacities
libixpdimm-core.so.1:_ZN4core6system21SystemMemoryResourcesC1ERKS1_
libixpdimm-core.so.1:_ZN4core6system21SystemMemoryResourcesC1Ev
libixpdimm-core.so.1:_ZN4core6system21SystemMemoryResourcesC2E17device_capacities
libixpdimm-core.so.1:_ZN4core6system21SystemMemoryResourcesC2ERKS1_
libixpdimm-core.so.1:_ZN4core6system21SystemMemoryResourcesC2Ev
libixpdimm-core.so.1:_ZN4core6system21SystemMemoryResourcesD0Ev
libixpdimm-core.so.1:_ZN4core6system21SystemMemoryResourcesD1Ev
libixpdimm-core.so.1:_ZN4core6system21SystemMemoryResourcesD2Ev
libixpdimm-core.so.1:_ZN4core6system21SystemMemoryResourcesaSERKS1_
libixpdimm-core.so.1:_ZNK4core10LibWrapper10dumpConfigEPKcS2_mh
libixpdimm-core.so.1:_ZNK4core10LibWrapper10getDevicesEP16device_discoveryh
libixpdimm-core.so.1:_ZNK4core10LibWrapper10getSensorsEPKcP6sensort
libixpdimm-core.so.1:_ZNK4core10LibWrapper10getSocketsEP6sockett
libixpdimm-core.so.1:_ZNK4core10LibWrapper10loadConfigEPKcS2_m
libixpdimm-core.so.1:_ZNK4core10LibWrapper11eraseDeviceEPKcS2_m
libixpdimm-core.so.1:_ZNK4core10LibWrapper11getHostNameEPcm
libixpdimm-core.so.1:_ZNK4core10LibWrapper11getJobCountEv
libixpdimm-core.so.1:_ZNK4core10LibWrapper11purgeEventsEPK12event_filter
libixpdimm-core.so.1:_ZNK4core10LibWrapper12addSimulatorEPKcm
libixpdimm-core.so.1:_ZNK4core10LibWrapper12clearDimmLsaEPKc
libixpdimm-core.so.1:_ZNK4core10LibWrapper12getDebugLogsEP7nvm_logj
libixpdimm-core.so.1:_ZNK4core10LibWrapper12getPoolCountEv
libixpdimm-core.so.1:_ZNK4core10LibWrapper12sendPassThruEPKcP13device_pt_cmd
libixpdimm-core.so.1:_ZNK4core10LibWrapper12unlockDeviceEPKcS2_m
libixpdimm-core.so.1:_ZNK4core10LibWrapper13gatherSupportEPKcm
libixpdimm-core.so.1:_ZNK4core10LibWrapper13getConfigGoalEPKcP11config_goal
libixpdimm-core.so.1:_ZNK4core10LibWrapper13getEventCountEPK12event_filter
libixpdimm-core.so.1:_ZNK4core10LibWrapper13getFwLogLevelEPKcP12fw_log_level
libixpdimm-core.so.1:_ZNK4core10LibWrapper13getNamespacesEP19namespace_discoveryh
libixpdimm-core.so.1:_ZNK4core10LibWrapper13purgeDebugLogEv
libixpdimm-core.so.1:_ZNK4core10LibWrapper13runDiagnosticEPKcPK10diagnosticPj
libixpdimm-core.so.1:_ZNK4core10LibWrapper13setFwLogLevelEPKc12fw_log_level
libixpdimm-core.so.1:_ZNK4core10LibWrapper13setPassphraseEPKcS2_mS2_m
libixpdimm-core.so.1:_ZNK4core10LibWrapper14addEventNotifyE10event_typePFvP5eventE
libixpdimm-core.so.1:_ZNK4core10LibWrapper14getDeviceCountEv
libixpdimm-core.so.1:_ZNK4core10LibWrapper14getSocketCountEv
libixpdimm-core.so.1:_ZNK4core10LibWrapper14getSwInventoryEP12sw_inventory
libixpdimm-core.so.1:_ZNK4core10LibWrapper14purgeStateDataEv
libixpdimm-core.so.1:_ZNK4core10LibWrapper14updateDeviceFwEPKcS2_mh
libixpdimm-core.so.1:_ZNK4core10LibWrapper15createNamespaceEPA37_cPKcP25namespace_create_settingsPK17interleave_formath
libixpdimm-core.so.1:_ZNK4core10LibWrapper15deleteNamespaceEPKc
libixpdimm-core.so.1:_ZNK4core10LibWrapper15examineDeviceFwEPKcS2_mPcm
libixpdimm-core.so.1:_ZNK4core10LibWrapper15getDeviceFwInfoEPKcP14device_fw_info
libixpdimm-core.so.1:_ZNK4core10LibWrapper15getDeviceStatusEPKcP13device_status
libixpdimm-core.so.1:_ZNK4core10LibWrapper15removeSimulatorEv
libixpdimm-core.so.1:_ZNK4core10LibWrapper16acknowledgeEventEj
libixpdimm-core.so.1:_ZNK4core10LibWrapper16createConfigGoalEPKcP11config_goal
libixpdimm-core.so.1:_ZNK4core10LibWrapper16deleteConfigGoalEPKc
libixpdimm-core.so.1:_ZNK4core10LibWrapper16freezeLockDeviceEPKc
libixpdimm-core.so.1:_ZNK4core10LibWrapper16getDebugLogCountEv
libixpdimm-core.so.1:_ZNK4core10LibWrapper16getDeviceDetailsEPKcP14device_details
libixpdimm-core.so.1:_ZNK4core10LibWrapper16getFwErrLogEntryEPKcthhPvj
libixpdimm-core.so.1:_ZNK4core10LibWrapper16getNvmCapacitiesEP17device_capacities
libixpdimm-core.so.1:_ZNK4core10LibWrapper16removePassphraseEPKcS2_m
libixpdimm-core.so.1:_ZNK4core10LibWrapper17getDeviceSettingsEPKcP15device_settings
libixpdimm-core.so.1:_ZNK4core10LibWrapper17getMemoryTopologyEP15memory_topologyh
libixpdimm-core.so.1:_ZNK4core10LibWrapper17getNamespaceCountEv
libixpdimm-core.so.1:_ZNK4core10LibWrapper17injectDeviceErrorEPKcPK12device_error
libixpdimm-core.so.1:_ZNK4core10LibWrapper17removeEventNotifyEi
libixpdimm-core.so.1:_ZNK4core10LibWrapper17setSensorSettingsEPKc11sensor_typePK15sensor_settings
libixpdimm-core.so.1:_ZNK4core10LibWrapper18getDeviceDiscoveryEPcP16device_discovery
libixpdimm-core.so.1:_ZNK4core10LibWrapper18getNvmCapabilitiesEP16nvm_capabilities
libixpdimm-core.so.1:_ZNK4core10LibWrapper18toggleDebugLoggingEh
libixpdimm-core.so.1:_ZNK4core10LibWrapper19debugLoggingEnabledEv
libixpdimm-core.so.1:_ZNK4core10LibWrapper19getNamespaceDetailsEPKcP17namespace_details
libixpdimm-core.so.1:_ZNK4core10LibWrapper19modifyNamespaceNameEPKcS2_
libixpdimm-core.so.1:_ZNK4core10LibWrapper20getDevicePerformanceEPKcP18device_performance
libixpdimm-core.so.1:_ZNK4core10LibWrapper20modifyDeviceSettingsEPKcPK15device_settings
libixpdimm-core.so.1:_ZNK4core10LibWrapper22getMemoryTopologyCountEv
libixpdimm-core.so.1:_ZNK4core10LibWrapper22modifyNamespaceEnabledEPKc22namespace_enable_state
libixpdimm-core.so.1:_ZNK4core10LibWrapper23getDeviceNamespaceCountEPKc14namespace_type
libixpdimm-core.so.1:_ZNK4core10LibWrapper24clearInjectedDeviceErrorEPKcPK12device_error
libixpdimm-core.so.1:_ZNK4core10LibWrapper25modifyNamespaceBlockCountEPKcyh
libixpdimm-core.so.1:_ZNK4core10LibWrapper31adjustCreateNamespaceBlockCountEPKcP25namespace_create_settingsPK17interleave_format
libixpdimm-core.so.1:_ZNK4core10LibWrapper31adjustModifyNamespaceBlockCountEPKcPy
libixpdimm-core.so.1:_ZNK4core10LibWrapper31getAvailablePersistentSizeRangeEPKcP25possible_namespace_rangesh
libixpdimm-core.so.1:_ZNK4core10LibWrapper7getHostEP4host
libixpdimm-core.so.1:_ZNK4core10LibWrapper7getJobsEP3jobj
libixpdimm-core.so.1:_ZNK4core10LibWrapper7getPoolEPcP4pool
libixpdimm-core.so.1:_ZNK4core10LibWrapper8getErrorE11return_codePcm
libixpdimm-core.so.1:_ZNK4core10LibWrapper8getPoolsEP4poolh
libixpdimm-core.so.1:_ZNK4core10LibWrapper9getEventsEPK12event_filterP5eventt
libixpdimm-core.so.1:_ZNK4core10LibWrapper9getSensorEPKc11sensor_typeP6sensor
libixpdimm-core.so.1:_ZNK4core10LibWrapper9getSocketEtP6socket
libixpdimm-core.so.1:_ZNK4core10LibWrapper9saveStateEPKcm
libixpdimm-core.so.1:_ZNK4core13configuration20MemoryAllocationGoal5cloneEv
libixpdimm-core.so.1:_ZNK4core13configuration30MemoryAllocationGoalCollection16hasGoalForDeviceERKNSt7__cxx1112basic_stringIcSt11char_traitsIcESaIcEEE
libixpdimm-core.so.1:_ZNK4core13configuration30MemoryAllocationGoalCollection21getDeviceUidsForGoalsB5cxx11Ev
libixpdimm-core.so.1:_ZNK4core13configuration30MemoryAllocationGoalCollection4sizeEv
libixpdimm-core.so.1:_ZNK4core16memory_allocator23MemoryAllocationRequest16getNumberOfDimmsEv
libixpdimm-core.so.1:_ZNK4core16memory_allocator23MemoryAllocationRequest18getAppDirectExtentEv
libixpdimm-core.so.1:_ZNK4core16memory_allocator23MemoryAllocationRequest19getNonReservedDimmsEv
libixpdimm-core.so.1:_ZNK4core16memory_allocator23MemoryAllocationRequest22getReservedCapacityGiBEv
libixpdimm-core.so.1:_ZNK4core16memory_allocator23MemoryAllocationRequest23getAppDirectCapacityGiBEv
libixpdimm-core.so.1:_ZNK4core16memory_allocator23MemoryAllocationRequest24getMemoryModeCapacityGiBEv
libixpdimm-core.so.1:_ZNK4core16memory_allocator23MemoryAllocationRequest32getTotalAlignedDimmCapacityInGiBEv
libixpdimm-core.so.1:_ZNK4core16memory_allocator23MemoryAllocationRequest33getAllMappableNonReservedCapacityEv
libixpdimm-core.so.1:_ZNK4core16memory_allocator23MemoryAllocationRequest33getRequestedMappedCapacityInBytesEv
libixpdimm-core.so.1:_ZNK4core16memory_allocator23MemoryAllocationRequest8getDimmsEv
libixpdimm-core.so.1:_ZNK4core18firmware_interface17FwCommandsWrapper12FwcmdFreeBsrEP16fwcmd_bsr_result
libixpdimm-core.so.1:_ZNK4core18firmware_interface17FwCommandsWrapper13FwcmdAllocBsrEj
libixpdimm-core.so.1:_ZNK4core18firmware_interface17FwCommandsWrapper15FwcmdCallFormatEjhh
libixpdimm-core.so.1:_ZNK4core18firmware_interface17FwCommandsWrapper19FwcmdCallFreezeLockEj
libixpdimm-core.so.1:_ZNK4core18firmware_interface17FwCommandsWrapper19FwcmdCallUnlockUnitEjPKc
libixpdimm-core.so.1:_ZNK4core18firmware_interface17FwCommandsWrapper19FwcmdFreeEnableDimmEP24fwcmd_enable_dimm_result
libixpdimm-core.so.1:_ZNK4core18firmware_interface17FwCommandsWrapper19FwcmdFreeFwLoadFlagEP25fwcmd_fw_load_flag_result
libixpdimm-core.so.1:_ZNK4core18firmware_interface17FwCommandsWrapper19FwcmdFreeSystemTimeEP24fwcmd_system_time_result
libixpdimm-core.so.1:_ZNK4core18firmware_interface17FwCommandsWrapper20FwcmdAllocEnableDimmEj
libixpdimm-core.so.1:_ZNK4core18firmware_interface17FwCommandsWrapper20FwcmdAllocFwLoadFlagEj
libixpdimm-core.so.1:_ZNK4core18firmware_interface17FwCommandsWrapper20FwcmdAllocSystemTimeEj
libixpdimm-core.so.1:_ZNK4core18firmware_interface17FwCommandsWrapper20FwcmdCallSecureEraseEjPKc
libixpdimm-core.so.1:_ZNK4core18firmware_interface17FwCommandsWrapper21FwcmdFreeIdentifyDimmEP26fwcmd_identify_dimm_result
libixpdimm-core.so.1:_ZNK4core18firmware_interface17FwCommandsWrapper22FwcmdAllocIdentifyDimmEj
libixpdimm-core.so.1:_ZNK4core18firmware_interface17FwCommandsWrapper22FwcmdCallSetPassphraseEjPKcS3_
libixpdimm-core.so.1:_ZNK4core18firmware_interface17FwCommandsWrapper22FwcmdFreePmonRegistersEP27fwcmd_pmon_registers_result
libixpdimm-core.so.1:_ZNK4core18firmware_interface17FwCommandsWrapper23FwcmdAllocPmonRegistersEjt
libixpdimm-core.so.1:_ZNK4core18firmware_interface17FwCommandsWrapper23FwcmdFreeConfigLockdownEP28fwcmd_config_lockdown_result
libixpdimm-core.so.1:_ZNK4core18firmware_interface17FwCommandsWrapper23FwcmdFreeDdrtIoInitInfoEP30fwcmd_ddrt_io_init_info_result
libixpdimm-core.so.1:_ZNK4core18firmware_interface17FwCommandsWrapper24FwcmdAllocConfigLockdownEj
libixpdimm-core.so.1:_ZNK4core18firmware_interface17FwCommandsWrapper24FwcmdAllocDdrtIoInitInfoEj
libixpdimm-core.so.1:_ZNK4core18firmware_interface17FwCommandsWrapper24FwcmdFreeFwDebugLogLevelEP31fwcmd_fw_debug_log_level_result
libixpdimm-core.so.1:_ZNK4core18firmware_interface17FwCommandsWrapper24FwcmdFreeNamespaceLabelsEP29fwcmd_namespace_labels_result
libixpdimm-core.so.1:_ZNK4core18firmware_interface17FwCommandsWrapper24FwcmdFreeSmartHealthInfoEP30fwcmd_smart_health_info_result
libixpdimm-core.so.1:_ZNK4core18firmware_interface17FwCommandsWrapper25FwcmdAllocFwDebugLogLevelEjh
libixpdimm-core.so.1:_ZNK4core18firmware_interface17FwCommandsWrapper25FwcmdAllocNamespaceLabelsEjhhj
libixpdimm-core.so.1:_ZNK4core18firmware_interface17FwCommandsWrapper25FwcmdAllocSmartHealthInfoEj
libixpdimm-core.so.1:_ZNK4core18firmware_interface17FwCommandsWrapper25FwcmdFreeDieSparingPolicyEP31fwcmd_die_sparing_policy_result
libixpdimm-core.so.1:_ZNK4core18firmware_interface17FwCommandsWrapper25FwcmdFreeFirmwareDebugLogEP31fwcmd_firmware_debug_log_result
libixpdimm-core.so.1:_ZNK4core18firmware_interface17FwCommandsWrapper25FwcmdFreeGetSecurityStateEP31fwcmd_get_security_state_result
libixpdimm-core.so.1:_ZNK4core18firmware_interface17FwCommandsWrapper26FwcmdAllocDieSparingPolicyEj
libixpdimm-core.so.1:_ZNK4core18firmware_interface17FwCommandsWrapper26FwcmdAllocFirmwareDebugLogEjhjh
libixpdimm-core.so.1:_ZNK4core18firmware_interface17FwCommandsWrapper26FwcmdAllocGetSecurityStateEj
libixpdimm-core.so.1:_ZNK4core18firmware_interface17FwCommandsWrapper26FwcmdCallDisablePassphraseEjPKc
libixpdimm-core.so.1:_ZNK4core18firmware_interface17FwCommandsWrapper26FwcmdCallSetAlarmThresholdEjhtt
libixpdimm-core.so.1:_ZNK4core18firmware_interface17FwCommandsWrapper26FwcmdFreeAddressRangeScrubEP32fwcmd_address_range_scrub_result
libixpdimm-core.so.1:_ZNK4core18firmware_interface17FwCommandsWrapper26FwcmdFreeDimmPartitionInfoEP32fwcmd_dimm_partition_info_result
libixpdimm-core.so.1:_ZNK4core18firmware_interface17FwCommandsWrapper26FwcmdFreeFirmwareImageInfoEP32fwcmd_firmware_image_info_result
libixpdimm-core.so.1:_ZNK4core18firmware_interface17FwCommandsWrapper26FwcmdFreeGetAlarmThresholdEP32fwcmd_get_alarm_threshold_result
libixpdimm-core.so.1:_ZNK4core18firmware_interface17FwCommandsWrapper27FwcmdAllocAddressRangeScrubEj
libixpdimm-core.so.1:_ZNK4core18firmware_interface17FwCommandsWrapper27FwcmdAllocDimmPartitionInfoEj
libixpdimm-core.so.1:_ZNK4core18firmware_interface17FwCommandsWrapper27FwcmdAllocFirmwareImageInfoEj
libixpdimm-core.so.1:_ZNK4core18firmware_interface17FwCommandsWrapper27FwcmdAllocGetAlarmThresholdEj
libixpdimm-core.so.1:_ZNK4core18firmware_interface17FwCommandsWrapper27FwcmdFreePlatformConfigDataEP33fwcmd_platform_config_data_result
libixpdimm-core.so.1:_ZNK4core18firmware_interface17FwCommandsWrapper28FwcmdAllocPlatformConfigDataEjhhj
libixpdimm-core.so.1:_ZNK4core18firmware_interface17FwCommandsWrapper28FwcmdFreeLongOperationStatusEP34fwcmd_long_operation_status_result
libixpdimm-core.so.1:_ZNK4core18firmware_interface17FwCommandsWrapper29FwcmdAllocLongOperationStatusEj
libixpdimm-core.so.1:_ZNK4core18firmware_interface17FwCommandsWrapper30FwcmdFreePowerManagementPolicyEP36fwcmd_power_management_policy_result
libixpdimm-core.so.1:_ZNK4core18firmware_interface17FwCommandsWrapper31FwcmdAllocPowerManagementPolicyEj
libixpdimm-core.so.1:_ZNK4core18firmware_interface17FwCommandsWrapper32FwcmdFreeGetSupportedSkuFeaturesEP39fwcmd_get_supported_sku_features_result
libixpdimm-core.so.1:_ZNK4core18firmware_interface17FwCommandsWrapper33FwcmdAllocGetSupportedSkuFeaturesEj
libixpdimm-core.so.1:_ZNK4core18firmware_interface17FwCommandsWrapper36FwcmdFreeIdentifyDimmCharacteristicsEP42fwcmd_identify_dimm_characteristics_result
libixpdimm-core.so.1:_ZNK4core18firmware_interface17FwCommandsWrapper37FwcmdAllocIdentifyDimmCharacteristicsEj
libixpdimm-core.so.1:_ZNK4core18firmware_interface17FwCommandsWrapper40FwcmdFreeOptionalConfigurationDataPolicyEP47fwcmd_optional_configuration_data_policy_result
libixpdimm-core.so.1:_ZNK4core18firmware_interface17FwCommandsWrapper41FwcmdAllocOptionalConfigurationDataPolicyEj
libixpdimm-core.so.1:_ZNK4core4logs3Log5cloneEv
libixpdimm-core.so.1:_ZNK4core4logs3LoggtES1_
libixpdimm-core.so.1:_ZNK4core6device18DeviceFirmwareInfo13getActiveTypeEv
libixpdimm-core.so.1:_ZNK4core6device18DeviceFirmwareInfo15isStagedPendingEv
libixpdimm-core.so.1:_ZNK4core6device18DeviceFirmwareInfo17getActiveCommitIdB5cxx11Ev
libixpdimm-core.so.1:_ZNK4core6device18DeviceFirmwareInfo17getActiveRevisionB5cxx11Ev
libixpdimm-core.so.1:_ZNK4core6device18DeviceFirmwareInfo17getStagedRevisionB5cxx11Ev
libixpdimm-core.so.1:_ZNK4core6device18DeviceFirmwareInfo21getLastFWUpdateStatusEv
libixpdimm-core.so.1:_ZNK4core6device18DeviceFirmwareInfo27getActiveBuildConfigurationB5cxx11Ev
libixpdimm-core.so.1:_ZNK4core6device18DeviceFirmwareInfo5cloneEv
libixpdimm-core.so.1:_ZNK4core6device28DeviceFirmwareInfoCollection4sizeEv
libixpdimm-core.so.1:_ZNK4core6device6Device5cloneEv
libixpdimm-core.so.1:_ZNK4core6system18SmbiosType4Utility16getProcessorTypeB5cxx11Eh
libixpdimm-core.so.1:_ZNK4core6system18SmbiosType4Utility18getProcessorFamilyB5cxx11Ej
libixpdimm-core.so.1:adapter_pt_ioctl_cmd
libixpdimm-core.so.1:fis_address_range_scrub
libixpdimm-core.so.1:fis_bsr
libixpdimm-core.so.1:fis_config_lockdown
libixpdimm-core.so.1:fis_ddrt_io_init_info
libixpdimm-core.so.1:fis_die_sparing_policy
libixpdimm-core.so.1:fis_dimm_partition_info
libixpdimm-core.so.1:fis_disable_passphrase
libixpdimm-core.so.1:fis_enable_dimm
libixpdimm-core.so.1:fis_firmware_debug_log
libixpdimm-core.so.1:fis_firmware_image_info
libixpdimm-core.so.1:fis_format
libixpdimm-core.so.1:fis_freeze_lock
libixpdimm-core.so.1:fis_fw_debug_log_level
libixpdimm-core.so.1:fis_fw_load_flag
libixpdimm-core.so.1:fis_get_alarm_threshold
libixpdimm-core.so.1:fis_get_error_message
libixpdimm-core.so.1:fis_get_security_state
libixpdimm-core.so.1:fis_get_supported_sku_features
libixpdimm-core.so.1:fis_identify_dimm
libixpdimm-core.so.1:fis_identify_dimm_characteristics
libixpdimm-core.so.1:fis_long_operation_status
libixpdimm-core.so.1:fis_namespace_labels
libixpdimm-core.so.1:fis_optional_configuration_data_policy
libixpdimm-core.so.1:fis_parse_address_range_scrub
libixpdimm-core.so.1:fis_parse_bsr
libixpdimm-core.so.1:fis_parse_config_input_table
libixpdimm-core.so.1:fis_parse_config_lockdown
libixpdimm-core.so.1:fis_parse_config_output_table
libixpdimm-core.so.1:fis_parse_current_config_table
libixpdimm-core.so.1:fis_parse_ddrt_io_init_info
libixpdimm-core.so.1:fis_parse_device_identification_v1
libixpdimm-core.so.1:fis_parse_device_identification_v2
libixpdimm-core.so.1:fis_parse_die_sparing_policy
libixpdimm-core.so.1:fis_parse_dimm_partition_info
libixpdimm-core.so.1:fis_parse_enable_dimm
libixpdimm-core.so.1:fis_parse_firmware_debug_log
libixpdimm-core.so.1:fis_parse_firmware_image_info
libixpdimm-core.so.1:fis_parse_fw_debug_log_level
libixpdimm-core.so.1:fis_parse_fw_load_flag
libixpdimm-core.so.1:fis_parse_get_alarm_threshold
libixpdimm-core.so.1:fis_parse_get_security_state
libixpdimm-core.so.1:fis_parse_get_supported_sku_features
libixpdimm-core.so.1:fis_parse_id_info_table
libixpdimm-core.so.1:fis_parse_identify_dimm
libixpdimm-core.so.1:fis_parse_identify_dimm_characteristics
libixpdimm-core.so.1:fis_parse_interleave_information_table
libixpdimm-core.so.1:fis_parse_long_operation_status
libixpdimm-core.so.1:fis_parse_namespace_labels
libixpdimm-core.so.1:fis_parse_ns_index
libixpdimm-core.so.1:fis_parse_ns_label
libixpdimm-core.so.1:fis_parse_ns_label_v1_1
libixpdimm-core.so.1:fis_parse_ns_label_v1_2
libixpdimm-core.so.1:fis_parse_optional_configuration_data_policy
libixpdimm-core.so.1:fis_parse_partition_size_change_table
libixpdimm-core.so.1:fis_parse_platform_config_data
libixpdimm-core.so.1:fis_parse_pmon_registers
libixpdimm-core.so.1:fis_parse_power_management_policy
libixpdimm-core.so.1:fis_parse_smart_health_info
libixpdimm-core.so.1:fis_parse_system_time
libixpdimm-core.so.1:fis_platform_config_data
libixpdimm-core.so.1:fis_pmon_registers
libixpdimm-core.so.1:fis_power_management_policy
libixpdimm-core.so.1:fis_secure_erase
libixpdimm-core.so.1:fis_set_alarm_threshold
libixpdimm-core.so.1:fis_set_passphrase
libixpdimm-core.so.1:fis_smart_health_info
libixpdimm-core.so.1:fis_system_time
libixpdimm-core.so.1:fis_unlock_unit
libixpdimm-core.so.1:fwcmd_alloc_address_range_scrub
libixpdimm-core.so.1:fwcmd_alloc_bsr
libixpdimm-core.so.1:fwcmd_alloc_config_lockdown
libixpdimm-core.so.1:fwcmd_alloc_ddrt_io_init_info
libixpdimm-core.so.1:fwcmd_alloc_die_sparing_policy
libixpdimm-core.so.1:fwcmd_alloc_dimm_partition_info
libixpdimm-core.so.1:fwcmd_alloc_enable_dimm
libixpdimm-core.so.1:fwcmd_alloc_firmware_debug_log
libixpdimm-core.so.1:fwcmd_alloc_firmware_image_info
libixpdimm-core.so.1:fwcmd_alloc_fw_debug_log_level
libixpdimm-core.so.1:fwcmd_alloc_fw_load_flag
libixpdimm-core.so.1:fwcmd_alloc_get_alarm_threshold
libixpdimm-core.so.1:fwcmd_alloc_get_security_state
libixpdimm-core.so.1:fwcmd_alloc_get_supported_sku_features
libixpdimm-core.so.1:fwcmd_alloc_identify_dimm
libixpdimm-core.so.1:fwcmd_alloc_identify_dimm_characteristics
libixpdimm-core.so.1:fwcmd_alloc_long_operation_status
libixpdimm-core.so.1:fwcmd_alloc_namespace_labels
libixpdimm-core.so.1:fwcmd_alloc_optional_configuration_data_policy
libixpdimm-core.so.1:fwcmd_alloc_platform_config_data
libixpdimm-core.so.1:fwcmd_alloc_pmon_registers
libixpdimm-core.so.1:fwcmd_alloc_power_management_policy
libixpdimm-core.so.1:fwcmd_alloc_smart_health_info
libixpdimm-core.so.1:fwcmd_alloc_system_time
libixpdimm-core.so.1:fwcmd_call_disable_passphrase
libixpdimm-core.so.1:fwcmd_call_format
libixpdimm-core.so.1:fwcmd_call_freeze_lock
libixpdimm-core.so.1:fwcmd_call_secure_erase
libixpdimm-core.so.1:fwcmd_call_set_alarm_threshold
libixpdimm-core.so.1:fwcmd_call_set_passphrase
libixpdimm-core.so.1:fwcmd_call_unlock_unit
libixpdimm-core.so.1:fwcmd_free_address_range_scrub
libixpdimm-core.so.1:fwcmd_free_address_range_scrub_data
libixpdimm-core.so.1:fwcmd_free_bsr
libixpdimm-core.so.1:fwcmd_free_bsr_data
libixpdimm-core.so.1:fwcmd_free_config_input_table_data
libixpdimm-core.so.1:fwcmd_free_config_lockdown
libixpdimm-core.so.1:fwcmd_free_config_lockdown_data
libixpdimm-core.so.1:fwcmd_free_config_output_table_data
libixpdimm-core.so.1:fwcmd_free_current_config_table_data
libixpdimm-core.so.1:fwcmd_free_ddrt_io_init_info
libixpdimm-core.so.1:fwcmd_free_ddrt_io_init_info_data
libixpdimm-core.so.1:fwcmd_free_device_identification_v1_data
libixpdimm-core.so.1:fwcmd_free_device_identification_v2_data
libixpdimm-core.so.1:fwcmd_free_die_sparing_policy
libixpdimm-core.so.1:fwcmd_free_die_sparing_policy_data
libixpdimm-core.so.1:fwcmd_free_dimm_partition_info
libixpdimm-core.so.1:fwcmd_free_dimm_partition_info_data
libixpdimm-core.so.1:fwcmd_free_enable_dimm
libixpdimm-core.so.1:fwcmd_free_enable_dimm_data
libixpdimm-core.so.1:fwcmd_free_firmware_debug_log
libixpdimm-core.so.1:fwcmd_free_firmware_debug_log_data
libixpdimm-core.so.1:fwcmd_free_firmware_image_info
libixpdimm-core.so.1:fwcmd_free_firmware_image_info_data
libixpdimm-core.so.1:fwcmd_free_fw_debug_log_level
libixpdimm-core.so.1:fwcmd_free_fw_debug_log_level_data
libixpdimm-core.so.1:fwcmd_free_fw_load_flag
libixpdimm-core.so.1:fwcmd_free_fw_load_flag_data
libixpdimm-core.so.1:fwcmd_free_get_alarm_threshold
libixpdimm-core.so.1:fwcmd_free_get_alarm_threshold_data
libixpdimm-core.so.1:fwcmd_free_get_security_state
libixpdimm-core.so.1:fwcmd_free_get_security_state_data
libixpdimm-core.so.1:fwcmd_free_get_supported_sku_features
libixpdimm-core.so.1:fwcmd_free_get_supported_sku_features_data
libixpdimm-core.so.1:fwcmd_free_id_info_table_data
libixpdimm-core.so.1:fwcmd_free_identify_dimm
libixpdimm-core.so.1:fwcmd_free_identify_dimm_characteristics
libixpdimm-core.so.1:fwcmd_free_identify_dimm_characteristics_data
libixpdimm-core.so.1:fwcmd_free_identify_dimm_data
libixpdimm-core.so.1:fwcmd_free_interleave_information_table_data
libixpdimm-core.so.1:fwcmd_free_long_operation_status
libixpdimm-core.so.1:fwcmd_free_long_operation_status_data
libixpdimm-core.so.1:fwcmd_free_namespace_labels
libixpdimm-core.so.1:fwcmd_free_namespace_labels_data
libixpdimm-core.so.1:fwcmd_free_ns_index_data
libixpdimm-core.so.1:fwcmd_free_ns_label_data
libixpdimm-core.so.1:fwcmd_free_ns_label_v1_1_data
libixpdimm-core.so.1:fwcmd_free_ns_label_v1_2_data
libixpdimm-core.so.1:fwcmd_free_optional_configuration_data_policy
libixpdimm-core.so.1:fwcmd_free_optional_configuration_data_policy_data
libixpdimm-core.so.1:fwcmd_free_partition_size_change_table_data
libixpdimm-core.so.1:fwcmd_free_platform_config_data
libixpdimm-core.so.1:fwcmd_free_platform_config_data_data
libixpdimm-core.so.1:fwcmd_free_pmon_registers
libixpdimm-core.so.1:fwcmd_free_pmon_registers_data
libixpdimm-core.so.1:fwcmd_free_power_management_policy
libixpdimm-core.so.1:fwcmd_free_power_management_policy_data
libixpdimm-core.so.1:fwcmd_free_smart_health_info
libixpdimm-core.so.1:fwcmd_free_smart_health_info_data
libixpdimm-core.so.1:fwcmd_free_system_time
libixpdimm-core.so.1:fwcmd_free_system_time_data
libixpdimm-core.so.1:fwcmd_is_command_name
libixpdimm-core.so.1:fwcmd_is_output_command_name
libixpdimm-core.so.1:get_pcd_size
libixpdimm-core.so.1:pt_cmd_submit
libixpdimm-core.so.1:pt_get_dimm_by_handle
libixpdimm-core.so.1:pt_get_error_message
libixpdimm-core.so.1:pt_get_payload_size
libixpdimm-core.so.1:pt_ioctl_cmd
libixpdimm-core.so.1:pt_read_large_payload
libixpdimm-core.so.1:pt_write_large_payload
libixpdimm.so.1:acpi_error_to_nfit_error
libixpdimm.so.1:acpi_event_create_ctx
libixpdimm.so.1:acpi_event_ctx_get_dimm_handle
libixpdimm.so.1:acpi_event_free_ctx
libixpdimm.so.1:acpi_event_get_event_state
libixpdimm.so.1:acpi_event_get_monitor_mask
libixpdimm.so.1:acpi_event_set_monitor_mask
libixpdimm.so.1:acpi_wait_for_event
libixpdimm.so.1:add_all_dimm_format_codes_from_nfit
libixpdimm.so.1:add_block_data_window_region_to_parsed_nfit
libixpdimm.so.1:add_control_region_to_parsed_nfit
libixpdimm.so.1:add_device_serial_numbers_to_list
libixpdimm.so.1:add_dimm_control_region_info_from_index
libixpdimm.so.1:add_dimm_info_from_handle
libixpdimm.so.1:add_dimm_to_pool
libixpdimm.so.1:add_dimms_volatile_capacity_to_pools
libixpdimm.so.1:add_events_for_all_duplicate_serial_numbers_in_list
libixpdimm.so.1:add_firmware_properties_to_device
libixpdimm.so.1:add_firmware_properties_to_populated_devices
libixpdimm.so.1:add_flush_hint_address_to_parsed_nfit
libixpdimm.so.1:add_identify_dimm_properties_to_device
libixpdimm.so.1:add_ifc_to_device
libixpdimm.so.1:add_ifc_to_list
libixpdimm.so.1:add_ifcs_from_identify_dimm_to_device
libixpdimm.so.1:add_interleave_set_to_pool
libixpdimm.so.1:add_interleave_sets_to_pools
libixpdimm.so.1:add_interleave_to_parsed_nfit
libixpdimm.so.1:add_region_mapping_to_parsed_nfit
libixpdimm.so.1:add_security_state_to_device
libixpdimm.so.1:add_serial_number_to_list
libixpdimm.so.1:add_simulator
libixpdimm.so.1:add_smbios_management_info_to_parsed_nfit
libixpdimm.so.1:add_smbios_properties_to_populated_devices
libixpdimm.so.1:add_spa_to_parsed_nfit
libixpdimm.so.1:adjust_namespace_block_count
libixpdimm.so.1:adjust_namespace_block_count_if_allowed
libixpdimm.so.1:all_dimms_on_socket_on_one_memory_controller
libixpdimm.so.1:allocatedPageStructsAreInDramOrPmem
libixpdimm.so.1:app_direct_capacity_is_requested_but_not_supported
libixpdimm.so.1:append_obfuscated_uid_to_string
libixpdimm.so.1:apply_bios_capabilities
libixpdimm.so.1:apply_dimm_sku_capabilities
libixpdimm.so.1:apply_driver_capabilities
libixpdimm.so.1:are_all_dimms_locked
libixpdimm.so.1:are_pcd_header_table_size_and_offset_valid
libixpdimm.so.1:arrange_devices_in_interleave_set_for_pcat2
libixpdimm.so.1:bios_get_payload_size
libixpdimm.so.1:bios_read_large_payload
libixpdimm.so.1:bios_write_large_payload
libixpdimm.so.1:build_obfuscated_dimm_uid_list_from_real_uid_list
libixpdimm.so.1:build_platform_config_data
libixpdimm.so.1:calculate_capabilities_for_populated_devices
libixpdimm.so.1:calculate_device_capabilities
libixpdimm.so.1:calculate_device_uid
libixpdimm.so.1:calculate_iset_cookies
libixpdimm.so.1:calculate_iset_free_capacity
libixpdimm.so.1:calculate_uid_with_valid_manufacturing_info
libixpdimm.so.1:calculate_uid_without_manufacturing_info
libixpdimm.so.1:calculate_uids_for_populated_devices
libixpdimm.so.1:capacity_to_real_block_count
libixpdimm.so.1:change_dimm_uid_in_db_event
libixpdimm.so.1:change_dimm_uid_in_db_events
libixpdimm.so.1:change_dimm_uid_in_events
libixpdimm.so.1:change_host_name_in_db_table
libixpdimm.so.1:change_hostname_in_host
libixpdimm.so.1:change_hostname_in_host_history
libixpdimm.so.1:change_hostname_in_sw_inventory
libixpdimm.so.1:change_hostname_in_sw_inventory_history
libixpdimm.so.1:change_serial_num_in_db_table
libixpdimm.so.1:change_serial_num_in_events
libixpdimm.so.1:change_serial_num_in_events_in_db
libixpdimm.so.1:change_serial_num_in_identify_dimm
libixpdimm.so.1:change_serial_num_in_identify_dimm_history
libixpdimm.so.1:change_serial_num_in_interleave_set_dimm_info
libixpdimm.so.1:change_serial_num_in_interleave_set_dimm_info_history
libixpdimm.so.1:change_serial_num_in_topology_state
libixpdimm.so.1:check_ait_dram_not_ready
libixpdimm.so.1:check_bios_config_support
libixpdimm.so.1:check_caller_permissions
libixpdimm.so.1:check_config_input
libixpdimm.so.1:check_config_output
libixpdimm.so.1:check_current_config
libixpdimm.so.1:check_current_sku_violations
libixpdimm.so.1:check_ddrt_io_init_done
libixpdimm.so.1:check_device_app_direct_namespaces_for_sku_violation
libixpdimm.so.1:check_dimm_ait_dram_status
libixpdimm.so.1:check_dimm_alarm_thresholds
libixpdimm.so.1:check_dimm_bsr
libixpdimm.so.1:check_dimm_fw_update_status
libixpdimm.so.1:check_dimm_health
libixpdimm.so.1:check_dimm_manageability
libixpdimm.so.1:check_dimm_power_limitation
libixpdimm.so.1:check_dimm_skus
libixpdimm.so.1:check_dimm_smart_health_status
libixpdimm.so.1:check_dimm_socket_capacities
libixpdimm.so.1:check_dimm_socket_layout_balance
libixpdimm.so.1:check_dimm_socket_layout_best_practices
libixpdimm.so.1:check_dimm_viral_state
libixpdimm.so.1:check_firmware_revision
libixpdimm.so.1:check_for_duplicate_serial_numbers
libixpdimm.so.1:check_for_unapplied_config_goal
libixpdimm.so.1:check_fw_assert
libixpdimm.so.1:check_fw_boot_status
libixpdimm.so.1:check_fw_stalled
libixpdimm.so.1:check_goal_sku_violations
libixpdimm.so.1:check_if_all_dimms_from_smbios_are_in_topology
libixpdimm.so.1:check_if_pool_interleave_sets_need_namespace
libixpdimm.so.1:check_if_pools_need_namespaces
libixpdimm.so.1:check_interleave_sets
libixpdimm.so.1:check_interleave_size
libixpdimm.so.1:check_lock_state
libixpdimm.so.1:check_media_disabled_status
libixpdimm.so.1:check_media_ready_status
libixpdimm.so.1:check_namespace_alignment
libixpdimm.so.1:check_namespace_best_practices
libixpdimm.so.1:check_namespace_best_practices_with_pools
libixpdimm.so.1:check_namespace_filesystem_mounted
libixpdimm.so.1:check_passphrase
libixpdimm.so.1:check_passphrase_capable
libixpdimm.so.1:check_pcd_current_config_for_device
libixpdimm.so.1:check_platform_config
libixpdimm.so.1:check_platform_config_best_practices
libixpdimm.so.1:check_platform_config_data_for_device
libixpdimm.so.1:check_platform_config_header
libixpdimm.so.1:check_sku_violation_for_appdirect_mode
libixpdimm.so.1:check_sku_violation_for_memory_mode
libixpdimm.so.1:check_smbios_table_for_uninitialized_dimms
libixpdimm.so.1:check_unlock_device_capable
libixpdimm.so.1:check_unmapped_device_config
libixpdimm.so.1:checksum_fletcher64
libixpdimm.so.1:choose_index_block
libixpdimm.so.1:clear_dimm_platform_config_from_db
libixpdimm.so.1:clear_pcat_from_db
libixpdimm.so.1:clear_serial_num_in_db_event
libixpdimm.so.1:collect_capabilities
libixpdimm.so.1:collect_dimm_capacities
libixpdimm.so.1:collect_dimm_goals
libixpdimm.so.1:collect_dimm_nslsa_list
libixpdimm.so.1:collect_dimm_statuses
libixpdimm.so.1:collect_host
libixpdimm.so.1:collect_interleave_sets
libixpdimm.so.1:collect_manageable_dimms
libixpdimm.so.1:collect_namespaces
libixpdimm.so.1:collect_ns_data_interleave_sets
libixpdimm.so.1:collect_ns_data_manageable_dimms
libixpdimm.so.1:collect_required_ns_data
libixpdimm.so.1:collect_required_pool_data
libixpdimm.so.1:compare_dimm_order_in_interleave_set
libixpdimm.so.1:compare_dimm_order_six_way_interleave_set
libixpdimm.so.1:config_goal_is_unapplied
libixpdimm.so.1:config_goal_to_config_input
libixpdimm.so.1:config_goal_to_interleave_ext_table
libixpdimm.so.1:config_goal_to_partition_ext_table
libixpdimm.so.1:config_input_table_to_config_goal
libixpdimm.so.1:convert_sku_to_device_capabilities
libixpdimm.so.1:convert_uid_with_manufacturing_data_to_bytes
libixpdimm.so.1:convert_uid_without_manufacturing_data_to_bytes
libixpdimm.so.1:copy_smbios_table_from_mem_alloc
libixpdimm.so.1:count_pools
libixpdimm.so.1:create_btt_namespace
libixpdimm.so.1:create_event_for_interleave_size
libixpdimm.so.1:create_namespace
libixpdimm.so.1:create_pfn_namespace
libixpdimm.so.1:current_volatile_mode_is_supported
libixpdimm.so.1:db_get_history_count
libixpdimm.so.1:delete_namespace
libixpdimm.so.1:delete_serial_number_count_list
libixpdimm.so.1:device_channel_ids_are_partners
libixpdimm.so.1:device_has_interface_format_code
libixpdimm.so.1:device_in_sku_violation
libixpdimm.so.1:device_is_encryption_enabled
libixpdimm.so.1:device_is_erase_capable
libixpdimm.so.1:device_meets_encryption_criteria
libixpdimm.so.1:device_meets_erase_capable_criteria
libixpdimm.so.1:device_meets_security_criteria
libixpdimm.so.1:device_uid_bytes_to_string
libixpdimm.so.1:device_uid_string_to_bytes
libixpdimm.so.1:device_with_handle_has_partner_on_other_mem_controller
libixpdimm.so.1:diag_check
libixpdimm.so.1:diag_check_real
libixpdimm.so.1:diag_check_str
libixpdimm.so.1:diag_clear_results
libixpdimm.so.1:diag_firmware_check
libixpdimm.so.1:diag_platform_config_check
libixpdimm.so.1:diag_quick_health_check
libixpdimm.so.1:diag_security_check
libixpdimm.so.1:dimm_has_namespaces_of_type
libixpdimm.so.1:dimm_is_in_interleave_set
libixpdimm.so.1:dimm_meets_security_criteria
libixpdimm.so.1:dimm_mode_skus_are_different
libixpdimm.so.1:dimm_security_skus_are_different
libixpdimm.so.1:dimm_sku_capabilities_to_nvm_features
libixpdimm.so.1:dimm_smart_health_status_to_string
libixpdimm.so.1:dimm_sparing_skus_are_different
libixpdimm.so.1:dimms_across_controllers_and_channels_match
libixpdimm.so.1:dimms_are_across_controllers
libixpdimm.so.1:dimms_are_locked
libixpdimm.so.1:dimms_on_socket_are_different_sizes
libixpdimm.so.1:disable_namespace
libixpdimm.so.1:driver_features_to_nvm_features
libixpdimm.so.1:dsm_err_to_nvm_lib_err
libixpdimm.so.1:enable_all_regions
libixpdimm.so.1:enable_dimm
libixpdimm.so.1:enable_namespace
libixpdimm.so.1:errors_exceed_threshold
libixpdimm.so.1:event_arg_should_be_obfuscated
libixpdimm.so.1:event_contains_device_uid
libixpdimm.so.1:event_field_metadata_includes_arg_type
libixpdimm.so.1:event_uid_should_be_obfuscated
libixpdimm.so.1:exists_and_manageable
libixpdimm.so.1:file_descriptor_valid
libixpdimm.so.1:fill_device_config_status
libixpdimm.so.1:fill_device_status_from_smart_health
libixpdimm.so.1:fill_event_arg_with_cleared_serial_number
libixpdimm.so.1:fill_fw_error_log_status
libixpdimm.so.1:fill_goal_dimm_uids
libixpdimm.so.1:fill_host_sku_status
libixpdimm.so.1:fill_interleave_set_settings_and_id_from_dimm
libixpdimm.so.1:find_id_for_ns_creation
libixpdimm.so.1:find_interleave_with_capacity
libixpdimm.so.1:find_optimal_fw_revision
libixpdimm.so.1:firmware_type_to_enum
libixpdimm.so.1:firmware_update_status_to_enum
libixpdimm.so.1:fix_label_less_for_spa_index
libixpdimm.so.1:free_device_list
libixpdimm.so.1:free_namespace_list
libixpdimm.so.1:free_nfit
libixpdimm.so.1:free_ns_data
libixpdimm.so.1:free_parsed_nfit
libixpdimm.so.1:free_pcd_namespace_list
libixpdimm.so.1:free_pool_data
libixpdimm.so.1:free_pool_list
libixpdimm.so.1:freeze_security
libixpdimm.so.1:fw_convert_float_to_fw_celsius
libixpdimm.so.1:fw_convert_fw_celsius_to_float
libixpdimm.so.1:fw_get_alarm_thresholds
libixpdimm.so.1:fw_get_bsr
libixpdimm.so.1:fw_get_config_data_policy
libixpdimm.so.1:fw_get_ddrt_io_init
libixpdimm.so.1:fw_get_fa_data
libixpdimm.so.1:fw_get_fw_error_log
libixpdimm.so.1:fw_get_fw_error_log_count
libixpdimm.so.1:fw_get_fw_error_log_info_data
libixpdimm.so.1:fw_get_fw_error_logs
libixpdimm.so.1:fw_get_fw_image_info
libixpdimm.so.1:fw_get_id_dimm_device_characteristics
libixpdimm.so.1:fw_get_identify_dimm
libixpdimm.so.1:fw_get_memory_info_page
libixpdimm.so.1:fw_get_security_state
libixpdimm.so.1:fw_get_smart_health
libixpdimm.so.1:fw_get_status_for_long_op
libixpdimm.so.1:fw_mb_err_to_nvm_lib_err
libixpdimm.so.1:fw_set_alarm_thresholds
libixpdimm.so.1:fw_set_config_data_policy
libixpdimm.so.1:generate_event_for_bad_driver
libixpdimm.so.1:generate_event_for_duplicate_serial_numbers
libixpdimm.so.1:generate_event_for_non_manageable_dimm_with_hex_value
libixpdimm.so.1:generate_obfuscated_dimm_uid
libixpdimm.so.1:generate_obfuscated_uid_for_device
libixpdimm.so.1:generate_obfuscated_uid_for_missing_device
libixpdimm.so.1:get_alignment_size
libixpdimm.so.1:get_all_driver_namespace_details
libixpdimm.so.1:get_app_direct_capacity_on_device
libixpdimm.so.1:get_capabilities_format
libixpdimm.so.1:get_config_error_from_config_output
libixpdimm.so.1:get_config_goal_status_error_from_config_output
libixpdimm.so.1:get_config_goal_status_from_platform_config_data
libixpdimm.so.1:get_config_status_from_current_config
libixpdimm.so.1:get_cpu_data_from_numa_node
libixpdimm.so.1:get_current_app_direct_mode
libixpdimm.so.1:get_db_events_alloc
libixpdimm.so.1:get_db_events_of_type_alloc
libixpdimm.so.1:get_details
libixpdimm.so.1:get_device_form_factor_from_smbios_form_factor
libixpdimm.so.1:get_device_memory_type_from_smbios_table
libixpdimm.so.1:get_device_status_by_handle
libixpdimm.so.1:get_device_uid_from_dimm_interleave_info_table
libixpdimm.so.1:get_devices
libixpdimm.so.1:get_devices_from_appdirect_attributes
libixpdimm.so.1:get_devices_matching_security
libixpdimm.so.1:get_dimm_by_handle
libixpdimm.so.1:get_dimm_capacities
libixpdimm.so.1:get_dimm_config_input_from_db
libixpdimm.so.1:get_dimm_config_input_size_from_db
libixpdimm.so.1:get_dimm_config_output_from_db
libixpdimm.so.1:get_dimm_config_output_size_from_db
libixpdimm.so.1:get_dimm_current_config_from_db
libixpdimm.so.1:get_dimm_current_config_size_from_db
libixpdimm.so.1:get_dimm_details
libixpdimm.so.1:get_dimm_details_for_physical_id
libixpdimm.so.1:get_dimm_details_from_smbios_table
libixpdimm.so.1:get_dimm_free_capacities
libixpdimm.so.1:get_dimm_health
libixpdimm.so.1:get_dimm_index_from_handle
libixpdimm.so.1:get_dimm_index_from_pool
libixpdimm.so.1:get_dimm_index_in_pool
libixpdimm.so.1:get_dimm_interleave_dimms_v1_from_db
libixpdimm.so.1:get_dimm_interleave_dimms_v2_from_db
libixpdimm.so.1:get_dimm_interleave_info_max_set_index
libixpdimm.so.1:get_dimm_interleave_tables_from_db
libixpdimm.so.1:get_dimm_partition_table_from_db
libixpdimm.so.1:get_dimm_physical_id_from_handle
libixpdimm.so.1:get_dimm_platform_config
libixpdimm.so.1:get_dimm_platform_config_data_from_db
libixpdimm.so.1:get_dimm_platform_config_size_from_db
libixpdimm.so.1:get_dimm_power_limited
libixpdimm.so.1:get_driver_capabilities
libixpdimm.so.1:get_driver_feature_flags
libixpdimm.so.1:get_driver_version_info
libixpdimm.so.1:get_enable_namespace
libixpdimm.so.1:get_enabled_namespace_dev_id
libixpdimm.so.1:get_error_threshold_from_config_db
libixpdimm.so.1:get_event_field_metadata
libixpdimm.so.1:get_exclusive_namespace_fd
libixpdimm.so.1:get_firmware_update_status
libixpdimm.so.1:get_first_core_id
libixpdimm.so.1:get_fw_api_major_version
libixpdimm.so.1:get_fw_api_minor_version
libixpdimm.so.1:get_fw_die_spare_policy
libixpdimm.so.1:get_fw_error_log_sensors
libixpdimm.so.1:get_fw_power_mgmt_policy
libixpdimm.so.1:get_fw_system_time
libixpdimm.so.1:get_high_priority_media_log_info
libixpdimm.so.1:get_high_priority_media_logs
libixpdimm.so.1:get_high_priority_thermal_log_info
libixpdimm.so.1:get_high_priority_thermal_logs
libixpdimm.so.1:get_host
libixpdimm.so.1:get_hw_dimm_platform_config_alloc
libixpdimm.so.1:get_idle_btt
libixpdimm.so.1:get_idle_pfn
libixpdimm.so.1:get_interleave_set_count
libixpdimm.so.1:get_interleave_set_count_from_nfit
libixpdimm.so.1:get_interleave_set_offset_from_pm_partition_start
libixpdimm.so.1:get_interleave_sets
libixpdimm.so.1:get_interleave_sets_from_nfit
libixpdimm.so.1:get_interleave_settings_from_platform_config_data
libixpdimm.so.1:get_interleaveset_by_driver_id
libixpdimm.so.1:get_isetid_from_nslabel_cookie
libixpdimm.so.1:get_job_count
libixpdimm.so.1:get_largest_app_direct_namespace
libixpdimm.so.1:get_last_config_output_sequence_number
libixpdimm.so.1:get_long_status
libixpdimm.so.1:get_low_priority_media_log_info
libixpdimm.so.1:get_low_priority_media_logs
libixpdimm.so.1:get_low_priority_thermal_log_info
libixpdimm.so.1:get_low_priority_thermal_logs
libixpdimm.so.1:get_manageability_from_topology
libixpdimm.so.1:get_manageable_dimms
libixpdimm.so.1:get_mapped_app_direct_capacity
libixpdimm.so.1:get_mapped_memory_capacity
libixpdimm.so.1:get_mapped_memory_info
libixpdimm.so.1:get_maximum_token_id
libixpdimm.so.1:get_mem_page_allocation
libixpdimm.so.1:get_memory_type_from_smbios_memory_type
libixpdimm.so.1:get_minimum_ns_size
libixpdimm.so.1:get_minimum_recommended_interleave_ways
libixpdimm.so.1:get_minimum_recommended_ways_for_nonmirrored_ad_interleave
libixpdimm.so.1:get_namespace_count
libixpdimm.so.1:get_namespace_count_from_pcd
libixpdimm.so.1:get_namespace_details
libixpdimm.so.1:get_namespace_details_from_pcd
libixpdimm.so.1:get_namespace_guid
libixpdimm.so.1:get_namespace_index_in_list
libixpdimm.so.1:get_namespace_label_version_from_region
libixpdimm.so.1:get_namespace_lba_size
libixpdimm.so.1:get_namespaces
libixpdimm.so.1:get_namespaces_from_pcd
libixpdimm.so.1:get_ndctl_app_direct_region_by_range_index
libixpdimm.so.1:get_ndctl_namespace_from_guid
libixpdimm.so.1:get_next_config_input_sequence_number
libixpdimm.so.1:get_ns_data_dimm_index_from_handle
libixpdimm.so.1:get_num_manageable_dimms_on_socket_mem_controller
libixpdimm.so.1:get_numa_node_count
libixpdimm.so.1:get_numa_node_logical_processor_count
libixpdimm.so.1:get_numa_nodes
libixpdimm.so.1:get_number_of_balanced_dimms_on_socket
libixpdimm.so.1:get_number_of_mirrored_app_direct_interleave_sets
libixpdimm.so.1:get_number_of_unbalanced_dimms_on_mem_controller
libixpdimm.so.1:get_nvm_capabilities_from_pcat
libixpdimm.so.1:get_nvm_context_capabilities
libixpdimm.so.1:get_nvm_context_device_count
libixpdimm.so.1:get_nvm_context_device_details
libixpdimm.so.1:get_nvm_context_device_pcd
libixpdimm.so.1:get_nvm_context_devices
libixpdimm.so.1:get_nvm_context_namespace_count
libixpdimm.so.1:get_nvm_context_namespace_details
libixpdimm.so.1:get_nvm_context_namespaces
libixpdimm.so.1:get_nvm_context_nfit
libixpdimm.so.1:get_nvm_context_nfit_size
libixpdimm.so.1:get_nvm_context_pcd_namespace_count
libixpdimm.so.1:get_nvm_context_pcd_namespaces
libixpdimm.so.1:get_nvm_context_pool
libixpdimm.so.1:get_nvm_context_pool_count
libixpdimm.so.1:get_nvm_context_pools
libixpdimm.so.1:get_nvm_namespaces_details_alloc
libixpdimm.so.1:get_offset_of_ext_table
libixpdimm.so.1:get_parsed_nfit
libixpdimm.so.1:get_partition_info
libixpdimm.so.1:get_pcat
libixpdimm.so.1:get_pcat_from_db
libixpdimm.so.1:get_pcat_interleave_tables_from_db
libixpdimm.so.1:get_pcat_platform_info_from_db
libixpdimm.so.1:get_pcat_revision
libixpdimm.so.1:get_pcat_runtime_validation_table_from_db
libixpdimm.so.1:get_pcat_socket_sku_info_from_db
libixpdimm.so.1:get_pcd_revision_from_another_device_in_list
libixpdimm.so.1:get_pcd_table_size
libixpdimm.so.1:get_platform_capabilities
libixpdimm.so.1:get_pool_from_namespace_details
libixpdimm.so.1:get_pool_index
libixpdimm.so.1:get_pool_supported_size_ranges
libixpdimm.so.1:get_power_limited_sensor
libixpdimm.so.1:get_repaired_dimm_platform_config
libixpdimm.so.1:get_revision_for_new_config_input
libixpdimm.so.1:get_sensor_thresholds
libixpdimm.so.1:get_sensors_by_category
libixpdimm.so.1:get_serial_number_item_from_list
libixpdimm.so.1:get_size_bytes_difference_between_namespace_and_containing_interleave_set
libixpdimm.so.1:get_size_from_capacity
libixpdimm.so.1:get_size_of_fa_blob_including_header
libixpdimm.so.1:get_sku_violation_state_for_device
libixpdimm.so.1:get_smallest_app_direct_namespace
libixpdimm.so.1:get_smart_log_sensors
libixpdimm.so.1:get_smbios_entry_point
libixpdimm.so.1:get_smbios_entry_point_from_efi
libixpdimm.so.1:get_smbios_entry_point_from_offset
libixpdimm.so.1:get_smbios_inventory
libixpdimm.so.1:get_smbios_inventory_count
libixpdimm.so.1:get_smbios_table_alloc
libixpdimm.so.1:get_socket
libixpdimm.so.1:get_socket_count
libixpdimm.so.1:get_socket_sku
libixpdimm.so.1:get_sockets
libixpdimm.so.1:get_supported_block_sizes
libixpdimm.so.1:get_table_revision
libixpdimm.so.1:get_test_result_count
libixpdimm.so.1:get_topology
libixpdimm.so.1:get_topology_count
libixpdimm.so.1:get_topology_count_from_nfit
libixpdimm.so.1:get_topology_from_nfit
libixpdimm.so.1:get_unconfigured_namespace
libixpdimm.so.1:get_unique_dimm_region_handles
libixpdimm.so.1:get_vendor_driver_revision
libixpdimm.so.1:has_matching_control_region_table
libixpdimm.so.1:init_event_notify
libixpdimm.so.1:init_label_dimm
libixpdimm.so.1:init_namespace_from_label
libixpdimm.so.1:init_pool
libixpdimm.so.1:initialize_sensors
libixpdimm.so.1:inject_dirty_shutdown_trigger
libixpdimm.so.1:inject_poison_error
libixpdimm.so.1:inject_software_trigger
libixpdimm.so.1:inject_spare_capacity_error
libixpdimm.so.1:inject_temperature_error
libixpdimm.so.1:interleave_matches_byone_request
libixpdimm.so.1:interleave_meets_app_direct_settings
libixpdimm.so.1:interleave_meets_security_criteria
libixpdimm.so.1:interleave_request_across_socket
libixpdimm.so.1:interleave_set_has_locked_dimms
libixpdimm.so.1:interleave_set_has_namespace
libixpdimm.so.1:interleave_set_has_offset
libixpdimm.so.1:interleave_sizes_match
libixpdimm.so.1:interleave_ways_match
libixpdimm.so.1:invalidate_device_pcd
libixpdimm.so.1:invalidate_devices
libixpdimm.so.1:invalidate_namespaces
libixpdimm.so.1:invalidate_pools
libixpdimm.so.1:ioctl_passthrough_cmd
libixpdimm.so.1:is_ars_in_progress
libixpdimm.so.1:is_capacity_larger
libixpdimm.so.1:is_config_data_table_header_valid
libixpdimm.so.1:is_config_input_table_valid
libixpdimm.so.1:is_config_output_table_valid
libixpdimm.so.1:is_current_config_table_valid
libixpdimm.so.1:is_device_fw_api_revision_supported
libixpdimm.so.1:is_device_interface_format_supported
libixpdimm.so.1:is_device_manageable
libixpdimm.so.1:is_device_subsystem_controller_supported
libixpdimm.so.1:is_dimm_already_added
libixpdimm.so.1:is_driver_module_installed
libixpdimm.so.1:is_end_of_metadata_table
libixpdimm.so.1:is_extension_table_list_valid
libixpdimm.so.1:is_fw_api_version_downgraded
libixpdimm.so.1:is_fw_api_version_supported
libixpdimm.so.1:is_fw_update_operation
libixpdimm.so.1:is_fw_version_greater_than_1_3
libixpdimm.so.1:is_in_memory_mode
libixpdimm.so.1:is_interleave_dimm_missing
libixpdimm.so.1:is_namespace_complete
libixpdimm.so.1:is_namespace_enabled
libixpdimm.so.1:is_nvm_feature_licensed
libixpdimm.so.1:is_nvm_feature_supported
libixpdimm.so.1:is_pcd_header_config_input_info_valid
libixpdimm.so.1:is_pcd_header_config_output_info_valid
libixpdimm.so.1:is_pcd_header_current_config_info_valid
libixpdimm.so.1:is_pcd_header_table_info_valid
libixpdimm.so.1:is_platform_config_header_valid
libixpdimm.so.1:is_slot_free
libixpdimm.so.1:is_subsystem_device_id_supported
libixpdimm.so.1:is_subsystem_vendor_id_supported
libixpdimm.so.1:is_supported_driver_available
libixpdimm.so.1:is_table_entry_for_event
libixpdimm.so.1:is_valid_index_block
libixpdimm.so.1:is_valid_label
libixpdimm.so.1:lib_load
libixpdimm.so.1:lib_unload
libixpdimm.so.1:linux_err_to_nvm_lib_err
libixpdimm.so.1:local_ioctl_passthrough_cmd
libixpdimm.so.1:log_mgmt_event
libixpdimm.so.1:lookup_dev_handle
libixpdimm.so.1:lookup_dev_manufacturer_serial_part
libixpdimm.so.1:lookup_dev_uid
libixpdimm.so.1:lookup_dev_uids
libixpdimm.so.1:lookup_device_nfit_by_handle
libixpdimm.so.1:map_sku_security_capabilities
libixpdimm.so.1:memory_capacity_is_requested_but_not_supported
libixpdimm.so.1:modify_namespace_block_count
libixpdimm.so.1:modify_namespace_enabled
libixpdimm.so.1:modify_namespace_name
libixpdimm.so.1:namespace_encryption_to_enum
libixpdimm.so.1:namespace_has_abstraction_guid
libixpdimm.so.1:nfit_dimm_to_nvm_topology
libixpdimm.so.1:nfit_err_to_lib_err
libixpdimm.so.1:nfit_get_dimms
libixpdimm.so.1:nfit_get_dimms_from_parsed_nfit
libixpdimm.so.1:nfit_get_interleave_sets
libixpdimm.so.1:nfit_get_interleave_sets_from_parsed_nfit
libixpdimm.so.1:nfit_get_parsed_nfit
libixpdimm.so.1:nfit_iset_to_nvm_iset
libixpdimm.so.1:nfit_parse_raw_nfit
libixpdimm.so.1:nfit_print_dimm
libixpdimm.so.1:nfit_print_error
libixpdimm.so.1:nfit_print_interleave_set
libixpdimm.so.1:numa_node_id_exists
libixpdimm.so.1:nvm_acknowledge_event
libixpdimm.so.1:nvm_add_event_notify
libixpdimm.so.1:nvm_add_simulator
libixpdimm.so.1:nvm_adjust_create_namespace_block_count
libixpdimm.so.1:nvm_adjust_modify_namespace_block_count
libixpdimm.so.1:nvm_clear_dimm_lsa
libixpdimm.so.1:nvm_clear_injected_device_error
libixpdimm.so.1:nvm_close_lib
libixpdimm.so.1:nvm_create_config_goal
libixpdimm.so.1:nvm_create_context
libixpdimm.so.1:nvm_create_namespace
libixpdimm.so.1:nvm_debug_logging_enabled
libixpdimm.so.1:nvm_delete_config_goal
libixpdimm.so.1:nvm_delete_namespace
libixpdimm.so.1:nvm_details_to_memory_topology
libixpdimm.so.1:nvm_dump_config
libixpdimm.so.1:nvm_dump_device_support
libixpdimm.so.1:nvm_erase_device
libixpdimm.so.1:nvm_examine_device_fw
libixpdimm.so.1:nvm_free_context
libixpdimm.so.1:nvm_freezelock_device
libixpdimm.so.1:nvm_gather_support
libixpdimm.so.1:nvm_get_available_persistent_size_range
libixpdimm.so.1:nvm_get_build_number
libixpdimm.so.1:nvm_get_config_goal
libixpdimm.so.1:nvm_get_debug_log_count
libixpdimm.so.1:nvm_get_debug_logs
libixpdimm.so.1:nvm_get_device_count
libixpdimm.so.1:nvm_get_device_details
libixpdimm.so.1:nvm_get_device_discovery
libixpdimm.so.1:nvm_get_device_fw_image_info
libixpdimm.so.1:nvm_get_device_namespace_count
libixpdimm.so.1:nvm_get_device_performance
libixpdimm.so.1:nvm_get_device_settings
libixpdimm.so.1:nvm_get_device_status
libixpdimm.so.1:nvm_get_devices
libixpdimm.so.1:nvm_get_devices_nfit
libixpdimm.so.1:nvm_get_error
libixpdimm.so.1:nvm_get_event_count
libixpdimm.so.1:nvm_get_events
libixpdimm.so.1:nvm_get_fw_error_log_entry_cmd
libixpdimm.so.1:nvm_get_fw_log_level
libixpdimm.so.1:nvm_get_host
libixpdimm.so.1:nvm_get_host_name
libixpdimm.so.1:nvm_get_hotfix_number
libixpdimm.so.1:nvm_get_job_count
libixpdimm.so.1:nvm_get_jobs
libixpdimm.so.1:nvm_get_major_version
libixpdimm.so.1:nvm_get_memory_topology
libixpdimm.so.1:nvm_get_memory_topology_count
libixpdimm.so.1:nvm_get_minor_version
libixpdimm.so.1:nvm_get_namespace_count
libixpdimm.so.1:nvm_get_namespace_details
libixpdimm.so.1:nvm_get_namespaces
libixpdimm.so.1:nvm_get_nvm_capabilities
libixpdimm.so.1:nvm_get_nvm_capacities
libixpdimm.so.1:nvm_get_pool
libixpdimm.so.1:nvm_get_pool_count
libixpdimm.so.1:nvm_get_pools
libixpdimm.so.1:nvm_get_security_permission
libixpdimm.so.1:nvm_get_sensor
libixpdimm.so.1:nvm_get_sensors
libixpdimm.so.1:nvm_get_sensors_by_category
libixpdimm.so.1:nvm_get_socket
libixpdimm.so.1:nvm_get_socket_count
libixpdimm.so.1:nvm_get_sockets
libixpdimm.so.1:nvm_get_sw_inventory
libixpdimm.so.1:nvm_get_version
libixpdimm.so.1:nvm_inject_device_error
libixpdimm.so.1:nvm_interleave_to_interleave
libixpdimm.so.1:nvm_load_config
libixpdimm.so.1:nvm_modify_device_settings
libixpdimm.so.1:nvm_modify_namespace_block_count
libixpdimm.so.1:nvm_modify_namespace_enabled
libixpdimm.so.1:nvm_modify_namespace_name
libixpdimm.so.1:nvm_open_lib
libixpdimm.so.1:nvm_purge_debug_log
libixpdimm.so.1:nvm_purge_events
libixpdimm.so.1:nvm_purge_state_data
libixpdimm.so.1:nvm_remove_event_notify
libixpdimm.so.1:nvm_remove_passphrase
libixpdimm.so.1:nvm_remove_simulator
libixpdimm.so.1:nvm_run_diagnostic
libixpdimm.so.1:nvm_save_state
libixpdimm.so.1:nvm_send_device_passthrough_cmd
libixpdimm.so.1:nvm_set_fw_log_level
libixpdimm.so.1:nvm_set_passphrase
libixpdimm.so.1:nvm_set_sensor_settings
libixpdimm.so.1:nvm_set_user_preference
libixpdimm.so.1:nvm_toggle_debug_logging
libixpdimm.so.1:nvm_topology_to_device
libixpdimm.so.1:nvm_unlock_device
libixpdimm.so.1:nvm_update_device_fw
libixpdimm.so.1:obfuscate_dimm_uid_in_db_event
libixpdimm.so.1:obfuscate_dimm_uid_in_event_uid
libixpdimm.so.1:obfuscate_dimm_uids_in_event_arg
libixpdimm.so.1:open_ioctl_target
libixpdimm.so.1:parse_dimm_ns_labels
libixpdimm.so.1:platform_capabilities_to_nvm_features
libixpdimm.so.1:pool_interleave_sets_need_namespace
libixpdimm.so.1:populate_device_details
libixpdimm.so.1:populate_devices
libixpdimm.so.1:populate_devices_from_topologies
libixpdimm.so.1:populate_die_sparing_policy_details
libixpdimm.so.1:populate_dimm_identifier_for_event
libixpdimm.so.1:populate_dimm_info_extension_table
libixpdimm.so.1:populate_dimm_info_extension_tables
libixpdimm.so.1:populate_interleave_set_dimm_info
libixpdimm.so.1:populate_manageable_device_details
libixpdimm.so.1:populate_namespaces
libixpdimm.so.1:populate_pools
libixpdimm.so.1:populate_power_mgmt_policy_details
libixpdimm.so.1:print_config_data_table_header
libixpdimm.so.1:print_extension_tables
libixpdimm.so.1:print_pcd_current
libixpdimm.so.1:print_pcd_header
libixpdimm.so.1:print_pcd_input
libixpdimm.so.1:print_pcd_output
libixpdimm.so.1:process_bitmask
libixpdimm.so.1:read_file_bytes
libixpdimm.so.1:reenumerate_namespaces
libixpdimm.so.1:release_namespace_fd
libixpdimm.so.1:remove_event_notify
libixpdimm.so.1:remove_simulator
libixpdimm.so.1:replace_dimm_uids_with_obfuscated_uids
libixpdimm.so.1:retrieve_all_fa_data_blobs
libixpdimm.so.1:retrieve_fa_blob_header
libixpdimm.so.1:retrieve_fa_blob_small_payload
libixpdimm.so.1:run_test
libixpdimm.so.1:secure_erase
libixpdimm.so.1:security_change_prepare
libixpdimm.so.1:security_state_to_enum
libixpdimm.so.1:send_ioctl_command
libixpdimm.so.1:send_new_firmware_to_device
libixpdimm.so.1:sensor_type_to_string
libixpdimm.so.1:set_block_count_in_settings
libixpdimm.so.1:set_device_manageability_from_firmware
libixpdimm.so.1:set_dimm_platform_config
libixpdimm.so.1:set_ioctl_passthrough_function
libixpdimm.so.1:set_nvm_context_capabilities
libixpdimm.so.1:set_nvm_context_device_details
libixpdimm.so.1:set_nvm_context_device_pcd
libixpdimm.so.1:set_nvm_context_devices
libixpdimm.so.1:set_nvm_context_namespace_details
libixpdimm.so.1:set_nvm_context_namespaces
libixpdimm.so.1:set_nvm_context_nfit
libixpdimm.so.1:set_nvm_context_pcd_namespace_count
libixpdimm.so.1:set_nvm_context_pcd_namespaces
libixpdimm.so.1:set_nvm_context_pools
libixpdimm.so.1:sku_value_is_different
libixpdimm.so.1:smart_health_status_to_device_health
libixpdimm.so.1:smbios_entry_is_in_topology
libixpdimm.so.1:smbios_entry_is_nvmdimm
libixpdimm.so.1:smbios_get_memory_device_size_in_bytes
libixpdimm.so.1:smbios_get_populated_memory_device_count
libixpdimm.so.1:smbios_memory_device_to_nvm_details
libixpdimm.so.1:smbios_table_to_nvm_details_array
libixpdimm.so.1:socket_is_balanced
libixpdimm.so.1:sort_cookie_data
libixpdimm.so.1:support_filter_data
libixpdimm.so.1:support_store_alarm_thresholds
libixpdimm.so.1:support_store_device_characteristics
libixpdimm.so.1:support_store_die_sparing
libixpdimm.so.1:support_store_dimm_details
libixpdimm.so.1:support_store_dimm_long_operation_status
libixpdimm.so.1:support_store_dimm_partition_info
libixpdimm.so.1:support_store_dimm_security_state
libixpdimm.so.1:support_store_dimm_topology
libixpdimm.so.1:support_store_driver_capabilities
libixpdimm.so.1:support_store_extension_tables_in_db
libixpdimm.so.1:support_store_fw_debug_logs
libixpdimm.so.1:support_store_fw_error_logs
libixpdimm.so.1:support_store_fw_image
libixpdimm.so.1:support_store_host
libixpdimm.so.1:support_store_identify_dimm
libixpdimm.so.1:support_store_interleave_sets
libixpdimm.so.1:support_store_memory
libixpdimm.so.1:support_store_namespaces
libixpdimm.so.1:support_store_optional_config_data
libixpdimm.so.1:support_store_partition_change_table
libixpdimm.so.1:support_store_platform_capabilities
libixpdimm.so.1:support_store_platform_config_data
libixpdimm.so.1:support_store_platform_config_interleave_set
libixpdimm.so.1:support_store_power_management
libixpdimm.so.1:support_store_smart
libixpdimm.so.1:support_store_sockets
libixpdimm.so.1:system_has_mixed_mode_skus
libixpdimm.so.1:system_has_mixed_security_skus
libixpdimm.so.1:system_has_mixed_skus
libixpdimm.so.1:system_has_mixed_sparing_skus
libixpdimm.so.1:system_in_sku_violation
libixpdimm.so.1:translate_pool_health_to_nvm_error
libixpdimm.so.1:translate_to_ars_status
libixpdimm.so.1:translate_to_sanitize_status
libixpdimm.so.1:uid_manufacturing_bytes_empty
libixpdimm.so.1:uid_to_event_arg
libixpdimm.so.1:uint32_to_bytes
libixpdimm.so.1:unset_ioctl_passthrough_function
libixpdimm.so.1:update_capacities_based_on_sku
libixpdimm.so.1:update_config_goal
libixpdimm.so.1:update_db_table_property
libixpdimm.so.1:update_device_mode_capabilities_from_interface_format_codes
libixpdimm.so.1:update_dimm_extension_tables_in_db
libixpdimm.so.1:update_dimm_interleave_set_in_db
libixpdimm.so.1:update_dimm_partition_size_in_db
libixpdimm.so.1:update_dimm_platform_config_in_db
libixpdimm.so.1:update_firmware
libixpdimm.so.1:update_pcat_in_db
libixpdimm.so.1:update_pool_security_from_iset
libixpdimm.so.1:update_status_fw_error_log_info_by_type_and_level
libixpdimm.so.1:validate_app_direct_namespace_size_for_modification
libixpdimm.so.1:validate_config_goal
libixpdimm.so.1:validate_config_goal_alignment
libixpdimm.so.1:validate_config_goal_size
libixpdimm.so.1:validate_config_goal_supported
libixpdimm.so.1:validate_interleave_set_size
libixpdimm.so.1:validate_namespace_block_count
libixpdimm.so.1:validate_namespace_create_settings
libixpdimm.so.1:validate_namespace_size_for_modification
libixpdimm.so.1:validate_ns_enabled_state
libixpdimm.so.1:validate_ns_size_for_creation
libixpdimm.so.1:validate_ns_type_for_pool
libixpdimm.so.1:validate_size_alignment
libixpdimm.so.1:verify_dimm_lock_state
libixpdimm.so.1:verify_interleave_set_rules
libixpdimm.so.1:verify_nfit
libixpdimm.so.1:verify_pcd
libixpdimm.so.1:zero_dimm_namespace_labels
libixpdimm.so.1:zero_pool_free_capacity_if_locked
